
ctarget:     file format elf64-x86-64


Disassembly of section .init:

0000000000400c68 <_init>:
  400c68:	48 83 ec 08          	sub    $0x8,%rsp
  400c6c:	48 8b 05 85 43 20 00 	mov    0x204385(%rip),%rax        # 604ff8 <_DYNAMIC+0x1e0>
  400c73:	48 85 c0             	test   %rax,%rax
  400c76:	74 05                	je     400c7d <_init+0x15>
  400c78:	e8 43 02 00 00       	callq  400ec0 <socket@plt+0x10>
  400c7d:	48 83 c4 08          	add    $0x8,%rsp
  400c81:	c3                   	retq   

Disassembly of section .plt:

0000000000400c90 <strcasecmp@plt-0x10>:
  400c90:	ff 35 72 43 20 00    	pushq  0x204372(%rip)        # 605008 <_GLOBAL_OFFSET_TABLE_+0x8>
  400c96:	ff 25 74 43 20 00    	jmpq   *0x204374(%rip)        # 605010 <_GLOBAL_OFFSET_TABLE_+0x10>
  400c9c:	0f 1f 40 00          	nopl   0x0(%rax)

0000000000400ca0 <strcasecmp@plt>:
  400ca0:	ff 25 72 43 20 00    	jmpq   *0x204372(%rip)        # 605018 <_GLOBAL_OFFSET_TABLE_+0x18>
  400ca6:	68 00 00 00 00       	pushq  $0x0
  400cab:	e9 e0 ff ff ff       	jmpq   400c90 <_init+0x28>

0000000000400cb0 <__errno_location@plt>:
  400cb0:	ff 25 6a 43 20 00    	jmpq   *0x20436a(%rip)        # 605020 <_GLOBAL_OFFSET_TABLE_+0x20>
  400cb6:	68 01 00 00 00       	pushq  $0x1
  400cbb:	e9 d0 ff ff ff       	jmpq   400c90 <_init+0x28>

0000000000400cc0 <srandom@plt>:
  400cc0:	ff 25 62 43 20 00    	jmpq   *0x204362(%rip)        # 605028 <_GLOBAL_OFFSET_TABLE_+0x28>
  400cc6:	68 02 00 00 00       	pushq  $0x2
  400ccb:	e9 c0 ff ff ff       	jmpq   400c90 <_init+0x28>

0000000000400cd0 <strncmp@plt>:
  400cd0:	ff 25 5a 43 20 00    	jmpq   *0x20435a(%rip)        # 605030 <_GLOBAL_OFFSET_TABLE_+0x30>
  400cd6:	68 03 00 00 00       	pushq  $0x3
  400cdb:	e9 b0 ff ff ff       	jmpq   400c90 <_init+0x28>

0000000000400ce0 <strcpy@plt>:
  400ce0:	ff 25 52 43 20 00    	jmpq   *0x204352(%rip)        # 605038 <_GLOBAL_OFFSET_TABLE_+0x38>
  400ce6:	68 04 00 00 00       	pushq  $0x4
  400ceb:	e9 a0 ff ff ff       	jmpq   400c90 <_init+0x28>

0000000000400cf0 <puts@plt>:
  400cf0:	ff 25 4a 43 20 00    	jmpq   *0x20434a(%rip)        # 605040 <_GLOBAL_OFFSET_TABLE_+0x40>
  400cf6:	68 05 00 00 00       	pushq  $0x5
  400cfb:	e9 90 ff ff ff       	jmpq   400c90 <_init+0x28>

0000000000400d00 <write@plt>:
  400d00:	ff 25 42 43 20 00    	jmpq   *0x204342(%rip)        # 605048 <_GLOBAL_OFFSET_TABLE_+0x48>
  400d06:	68 06 00 00 00       	pushq  $0x6
  400d0b:	e9 80 ff ff ff       	jmpq   400c90 <_init+0x28>

0000000000400d10 <__stack_chk_fail@plt>:
  400d10:	ff 25 3a 43 20 00    	jmpq   *0x20433a(%rip)        # 605050 <_GLOBAL_OFFSET_TABLE_+0x50>
  400d16:	68 07 00 00 00       	pushq  $0x7
  400d1b:	e9 70 ff ff ff       	jmpq   400c90 <_init+0x28>

0000000000400d20 <mmap@plt>:
  400d20:	ff 25 32 43 20 00    	jmpq   *0x204332(%rip)        # 605058 <_GLOBAL_OFFSET_TABLE_+0x58>
  400d26:	68 08 00 00 00       	pushq  $0x8
  400d2b:	e9 60 ff ff ff       	jmpq   400c90 <_init+0x28>

0000000000400d30 <memset@plt>:
  400d30:	ff 25 2a 43 20 00    	jmpq   *0x20432a(%rip)        # 605060 <_GLOBAL_OFFSET_TABLE_+0x60>
  400d36:	68 09 00 00 00       	pushq  $0x9
  400d3b:	e9 50 ff ff ff       	jmpq   400c90 <_init+0x28>

0000000000400d40 <alarm@plt>:
  400d40:	ff 25 22 43 20 00    	jmpq   *0x204322(%rip)        # 605068 <_GLOBAL_OFFSET_TABLE_+0x68>
  400d46:	68 0a 00 00 00       	pushq  $0xa
  400d4b:	e9 40 ff ff ff       	jmpq   400c90 <_init+0x28>

0000000000400d50 <close@plt>:
  400d50:	ff 25 1a 43 20 00    	jmpq   *0x20431a(%rip)        # 605070 <_GLOBAL_OFFSET_TABLE_+0x70>
  400d56:	68 0b 00 00 00       	pushq  $0xb
  400d5b:	e9 30 ff ff ff       	jmpq   400c90 <_init+0x28>

0000000000400d60 <read@plt>:
  400d60:	ff 25 12 43 20 00    	jmpq   *0x204312(%rip)        # 605078 <_GLOBAL_OFFSET_TABLE_+0x78>
  400d66:	68 0c 00 00 00       	pushq  $0xc
  400d6b:	e9 20 ff ff ff       	jmpq   400c90 <_init+0x28>

0000000000400d70 <__libc_start_main@plt>:
  400d70:	ff 25 0a 43 20 00    	jmpq   *0x20430a(%rip)        # 605080 <_GLOBAL_OFFSET_TABLE_+0x80>
  400d76:	68 0d 00 00 00       	pushq  $0xd
  400d7b:	e9 10 ff ff ff       	jmpq   400c90 <_init+0x28>

0000000000400d80 <signal@plt>:
  400d80:	ff 25 02 43 20 00    	jmpq   *0x204302(%rip)        # 605088 <_GLOBAL_OFFSET_TABLE_+0x88>
  400d86:	68 0e 00 00 00       	pushq  $0xe
  400d8b:	e9 00 ff ff ff       	jmpq   400c90 <_init+0x28>

0000000000400d90 <gethostbyname@plt>:
  400d90:	ff 25 fa 42 20 00    	jmpq   *0x2042fa(%rip)        # 605090 <_GLOBAL_OFFSET_TABLE_+0x90>
  400d96:	68 0f 00 00 00       	pushq  $0xf
  400d9b:	e9 f0 fe ff ff       	jmpq   400c90 <_init+0x28>

0000000000400da0 <__memmove_chk@plt>:
  400da0:	ff 25 f2 42 20 00    	jmpq   *0x2042f2(%rip)        # 605098 <_GLOBAL_OFFSET_TABLE_+0x98>
  400da6:	68 10 00 00 00       	pushq  $0x10
  400dab:	e9 e0 fe ff ff       	jmpq   400c90 <_init+0x28>

0000000000400db0 <strtol@plt>:
  400db0:	ff 25 ea 42 20 00    	jmpq   *0x2042ea(%rip)        # 6050a0 <_GLOBAL_OFFSET_TABLE_+0xa0>
  400db6:	68 11 00 00 00       	pushq  $0x11
  400dbb:	e9 d0 fe ff ff       	jmpq   400c90 <_init+0x28>

0000000000400dc0 <memcpy@plt>:
  400dc0:	ff 25 e2 42 20 00    	jmpq   *0x2042e2(%rip)        # 6050a8 <_GLOBAL_OFFSET_TABLE_+0xa8>
  400dc6:	68 12 00 00 00       	pushq  $0x12
  400dcb:	e9 c0 fe ff ff       	jmpq   400c90 <_init+0x28>

0000000000400dd0 <time@plt>:
  400dd0:	ff 25 da 42 20 00    	jmpq   *0x2042da(%rip)        # 6050b0 <_GLOBAL_OFFSET_TABLE_+0xb0>
  400dd6:	68 13 00 00 00       	pushq  $0x13
  400ddb:	e9 b0 fe ff ff       	jmpq   400c90 <_init+0x28>

0000000000400de0 <random@plt>:
  400de0:	ff 25 d2 42 20 00    	jmpq   *0x2042d2(%rip)        # 6050b8 <_GLOBAL_OFFSET_TABLE_+0xb8>
  400de6:	68 14 00 00 00       	pushq  $0x14
  400deb:	e9 a0 fe ff ff       	jmpq   400c90 <_init+0x28>

0000000000400df0 <_IO_getc@plt>:
  400df0:	ff 25 ca 42 20 00    	jmpq   *0x2042ca(%rip)        # 6050c0 <_GLOBAL_OFFSET_TABLE_+0xc0>
  400df6:	68 15 00 00 00       	pushq  $0x15
  400dfb:	e9 90 fe ff ff       	jmpq   400c90 <_init+0x28>

0000000000400e00 <__isoc99_sscanf@plt>:
  400e00:	ff 25 c2 42 20 00    	jmpq   *0x2042c2(%rip)        # 6050c8 <_GLOBAL_OFFSET_TABLE_+0xc8>
  400e06:	68 16 00 00 00       	pushq  $0x16
  400e0b:	e9 80 fe ff ff       	jmpq   400c90 <_init+0x28>

0000000000400e10 <munmap@plt>:
  400e10:	ff 25 ba 42 20 00    	jmpq   *0x2042ba(%rip)        # 6050d0 <_GLOBAL_OFFSET_TABLE_+0xd0>
  400e16:	68 17 00 00 00       	pushq  $0x17
  400e1b:	e9 70 fe ff ff       	jmpq   400c90 <_init+0x28>

0000000000400e20 <__printf_chk@plt>:
  400e20:	ff 25 b2 42 20 00    	jmpq   *0x2042b2(%rip)        # 6050d8 <_GLOBAL_OFFSET_TABLE_+0xd8>
  400e26:	68 18 00 00 00       	pushq  $0x18
  400e2b:	e9 60 fe ff ff       	jmpq   400c90 <_init+0x28>

0000000000400e30 <fopen@plt>:
  400e30:	ff 25 aa 42 20 00    	jmpq   *0x2042aa(%rip)        # 6050e0 <_GLOBAL_OFFSET_TABLE_+0xe0>
  400e36:	68 19 00 00 00       	pushq  $0x19
  400e3b:	e9 50 fe ff ff       	jmpq   400c90 <_init+0x28>

0000000000400e40 <getopt@plt>:
  400e40:	ff 25 a2 42 20 00    	jmpq   *0x2042a2(%rip)        # 6050e8 <_GLOBAL_OFFSET_TABLE_+0xe8>
  400e46:	68 1a 00 00 00       	pushq  $0x1a
  400e4b:	e9 40 fe ff ff       	jmpq   400c90 <_init+0x28>

0000000000400e50 <strtoul@plt>:
  400e50:	ff 25 9a 42 20 00    	jmpq   *0x20429a(%rip)        # 6050f0 <_GLOBAL_OFFSET_TABLE_+0xf0>
  400e56:	68 1b 00 00 00       	pushq  $0x1b
  400e5b:	e9 30 fe ff ff       	jmpq   400c90 <_init+0x28>

0000000000400e60 <gethostname@plt>:
  400e60:	ff 25 92 42 20 00    	jmpq   *0x204292(%rip)        # 6050f8 <_GLOBAL_OFFSET_TABLE_+0xf8>
  400e66:	68 1c 00 00 00       	pushq  $0x1c
  400e6b:	e9 20 fe ff ff       	jmpq   400c90 <_init+0x28>

0000000000400e70 <exit@plt>:
  400e70:	ff 25 8a 42 20 00    	jmpq   *0x20428a(%rip)        # 605100 <_GLOBAL_OFFSET_TABLE_+0x100>
  400e76:	68 1d 00 00 00       	pushq  $0x1d
  400e7b:	e9 10 fe ff ff       	jmpq   400c90 <_init+0x28>

0000000000400e80 <connect@plt>:
  400e80:	ff 25 82 42 20 00    	jmpq   *0x204282(%rip)        # 605108 <_GLOBAL_OFFSET_TABLE_+0x108>
  400e86:	68 1e 00 00 00       	pushq  $0x1e
  400e8b:	e9 00 fe ff ff       	jmpq   400c90 <_init+0x28>

0000000000400e90 <__fprintf_chk@plt>:
  400e90:	ff 25 7a 42 20 00    	jmpq   *0x20427a(%rip)        # 605110 <_GLOBAL_OFFSET_TABLE_+0x110>
  400e96:	68 1f 00 00 00       	pushq  $0x1f
  400e9b:	e9 f0 fd ff ff       	jmpq   400c90 <_init+0x28>

0000000000400ea0 <__sprintf_chk@plt>:
  400ea0:	ff 25 72 42 20 00    	jmpq   *0x204272(%rip)        # 605118 <_GLOBAL_OFFSET_TABLE_+0x118>
  400ea6:	68 20 00 00 00       	pushq  $0x20
  400eab:	e9 e0 fd ff ff       	jmpq   400c90 <_init+0x28>

0000000000400eb0 <socket@plt>:
  400eb0:	ff 25 6a 42 20 00    	jmpq   *0x20426a(%rip)        # 605120 <_GLOBAL_OFFSET_TABLE_+0x120>
  400eb6:	68 21 00 00 00       	pushq  $0x21
  400ebb:	e9 d0 fd ff ff       	jmpq   400c90 <_init+0x28>

Disassembly of section .plt.got:

0000000000400ec0 <.plt.got>:
  400ec0:	ff 25 32 41 20 00    	jmpq   *0x204132(%rip)        # 604ff8 <_DYNAMIC+0x1e0>
  400ec6:	66 90                	xchg   %ax,%ax

Disassembly of section .text:

0000000000400ed0 <_start>:
  400ed0:	31 ed                	xor    %ebp,%ebp
  400ed2:	49 89 d1             	mov    %rdx,%r9
  400ed5:	5e                   	pop    %rsi
  400ed6:	48 89 e2             	mov    %rsp,%rdx
  400ed9:	48 83 e4 f0          	and    $0xfffffffffffffff0,%rsp
  400edd:	50                   	push   %rax
  400ede:	54                   	push   %rsp
  400edf:	49 c7 c0 60 2e 40 00 	mov    $0x402e60,%r8
  400ee6:	48 c7 c1 f0 2d 40 00 	mov    $0x402df0,%rcx
  400eed:	48 c7 c7 d5 11 40 00 	mov    $0x4011d5,%rdi
  400ef4:	e8 77 fe ff ff       	callq  400d70 <__libc_start_main@plt>
  400ef9:	f4                   	hlt    
  400efa:	66 0f 1f 44 00 00    	nopw   0x0(%rax,%rax,1)

0000000000400f00 <deregister_tm_clones>:
  400f00:	b8 b7 54 60 00       	mov    $0x6054b7,%eax
  400f05:	55                   	push   %rbp
  400f06:	48 2d b0 54 60 00    	sub    $0x6054b0,%rax
  400f0c:	48 83 f8 0e          	cmp    $0xe,%rax
  400f10:	48 89 e5             	mov    %rsp,%rbp
  400f13:	76 1b                	jbe    400f30 <deregister_tm_clones+0x30>
  400f15:	b8 00 00 00 00       	mov    $0x0,%eax
  400f1a:	48 85 c0             	test   %rax,%rax
  400f1d:	74 11                	je     400f30 <deregister_tm_clones+0x30>
  400f1f:	5d                   	pop    %rbp
  400f20:	bf b0 54 60 00       	mov    $0x6054b0,%edi
  400f25:	ff e0                	jmpq   *%rax
  400f27:	66 0f 1f 84 00 00 00 	nopw   0x0(%rax,%rax,1)
  400f2e:	00 00 
  400f30:	5d                   	pop    %rbp
  400f31:	c3                   	retq   
  400f32:	0f 1f 40 00          	nopl   0x0(%rax)
  400f36:	66 2e 0f 1f 84 00 00 	nopw   %cs:0x0(%rax,%rax,1)
  400f3d:	00 00 00 

0000000000400f40 <register_tm_clones>:
  400f40:	be b0 54 60 00       	mov    $0x6054b0,%esi
  400f45:	55                   	push   %rbp
  400f46:	48 81 ee b0 54 60 00 	sub    $0x6054b0,%rsi
  400f4d:	48 c1 fe 03          	sar    $0x3,%rsi
  400f51:	48 89 e5             	mov    %rsp,%rbp
  400f54:	48 89 f0             	mov    %rsi,%rax
  400f57:	48 c1 e8 3f          	shr    $0x3f,%rax
  400f5b:	48 01 c6             	add    %rax,%rsi
  400f5e:	48 d1 fe             	sar    %rsi
  400f61:	74 15                	je     400f78 <register_tm_clones+0x38>
  400f63:	b8 00 00 00 00       	mov    $0x0,%eax
  400f68:	48 85 c0             	test   %rax,%rax
  400f6b:	74 0b                	je     400f78 <register_tm_clones+0x38>
  400f6d:	5d                   	pop    %rbp
  400f6e:	bf b0 54 60 00       	mov    $0x6054b0,%edi
  400f73:	ff e0                	jmpq   *%rax
  400f75:	0f 1f 00             	nopl   (%rax)
  400f78:	5d                   	pop    %rbp
  400f79:	c3                   	retq   
  400f7a:	66 0f 1f 44 00 00    	nopw   0x0(%rax,%rax,1)

0000000000400f80 <__do_global_dtors_aux>:
  400f80:	80 3d 61 45 20 00 00 	cmpb   $0x0,0x204561(%rip)        # 6054e8 <completed.7585>
  400f87:	75 11                	jne    400f9a <__do_global_dtors_aux+0x1a>
  400f89:	55                   	push   %rbp
  400f8a:	48 89 e5             	mov    %rsp,%rbp
  400f8d:	e8 6e ff ff ff       	callq  400f00 <deregister_tm_clones>
  400f92:	5d                   	pop    %rbp
  400f93:	c6 05 4e 45 20 00 01 	movb   $0x1,0x20454e(%rip)        # 6054e8 <completed.7585>
  400f9a:	f3 c3                	repz retq 
  400f9c:	0f 1f 40 00          	nopl   0x0(%rax)

0000000000400fa0 <frame_dummy>:
  400fa0:	bf 10 4e 60 00       	mov    $0x604e10,%edi
  400fa5:	48 83 3f 00          	cmpq   $0x0,(%rdi)
  400fa9:	75 05                	jne    400fb0 <frame_dummy+0x10>
  400fab:	eb 93                	jmp    400f40 <register_tm_clones>
  400fad:	0f 1f 00             	nopl   (%rax)
  400fb0:	b8 00 00 00 00       	mov    $0x0,%eax
  400fb5:	48 85 c0             	test   %rax,%rax
  400fb8:	74 f1                	je     400fab <frame_dummy+0xb>
  400fba:	55                   	push   %rbp
  400fbb:	48 89 e5             	mov    %rsp,%rbp
  400fbe:	ff d0                	callq  *%rax
  400fc0:	5d                   	pop    %rbp
  400fc1:	e9 7a ff ff ff       	jmpq   400f40 <register_tm_clones>

0000000000400fc6 <usage>:
  400fc6:	48 83 ec 08          	sub    $0x8,%rsp
  400fca:	48 89 fa             	mov    %rdi,%rdx
  400fcd:	83 3d 54 45 20 00 00 	cmpl   $0x0,0x204554(%rip)        # 605528 <is_checker>
  400fd4:	74 3e                	je     401014 <usage+0x4e>
  400fd6:	be 78 2e 40 00       	mov    $0x402e78,%esi
  400fdb:	bf 01 00 00 00       	mov    $0x1,%edi
  400fe0:	b8 00 00 00 00       	mov    $0x0,%eax
  400fe5:	e8 36 fe ff ff       	callq  400e20 <__printf_chk@plt>
  400fea:	bf b0 2e 40 00       	mov    $0x402eb0,%edi
  400fef:	e8 fc fc ff ff       	callq  400cf0 <puts@plt>
  400ff4:	bf 28 30 40 00       	mov    $0x403028,%edi
  400ff9:	e8 f2 fc ff ff       	callq  400cf0 <puts@plt>
  400ffe:	bf d8 2e 40 00       	mov    $0x402ed8,%edi
  401003:	e8 e8 fc ff ff       	callq  400cf0 <puts@plt>
  401008:	bf 42 30 40 00       	mov    $0x403042,%edi
  40100d:	e8 de fc ff ff       	callq  400cf0 <puts@plt>
  401012:	eb 32                	jmp    401046 <usage+0x80>
  401014:	be 5e 30 40 00       	mov    $0x40305e,%esi
  401019:	bf 01 00 00 00       	mov    $0x1,%edi
  40101e:	b8 00 00 00 00       	mov    $0x0,%eax
  401023:	e8 f8 fd ff ff       	callq  400e20 <__printf_chk@plt>
  401028:	bf 00 2f 40 00       	mov    $0x402f00,%edi
  40102d:	e8 be fc ff ff       	callq  400cf0 <puts@plt>
  401032:	bf 28 2f 40 00       	mov    $0x402f28,%edi
  401037:	e8 b4 fc ff ff       	callq  400cf0 <puts@plt>
  40103c:	bf 7c 30 40 00       	mov    $0x40307c,%edi
  401041:	e8 aa fc ff ff       	callq  400cf0 <puts@plt>
  401046:	bf 00 00 00 00       	mov    $0x0,%edi
  40104b:	e8 20 fe ff ff       	callq  400e70 <exit@plt>

0000000000401050 <initialize_target>:
  401050:	55                   	push   %rbp
  401051:	53                   	push   %rbx
  401052:	48 81 ec 18 21 00 00 	sub    $0x2118,%rsp
  401059:	89 f5                	mov    %esi,%ebp
  40105b:	64 48 8b 04 25 28 00 	mov    %fs:0x28,%rax
  401062:	00 00 
  401064:	48 89 84 24 08 21 00 	mov    %rax,0x2108(%rsp)
  40106b:	00 
  40106c:	31 c0                	xor    %eax,%eax
  40106e:	89 3d a4 44 20 00    	mov    %edi,0x2044a4(%rip)        # 605518 <check_level>
  401074:	8b 3d ee 40 20 00    	mov    0x2040ee(%rip),%edi        # 605168 <target_id>
  40107a:	e8 4b 1d 00 00       	callq  402dca <gencookie>
  40107f:	89 05 9f 44 20 00    	mov    %eax,0x20449f(%rip)        # 605524 <cookie>
  401085:	89 c7                	mov    %eax,%edi
  401087:	e8 3e 1d 00 00       	callq  402dca <gencookie>
  40108c:	89 05 8e 44 20 00    	mov    %eax,0x20448e(%rip)        # 605520 <authkey>
  401092:	8b 05 d0 40 20 00    	mov    0x2040d0(%rip),%eax        # 605168 <target_id>
  401098:	8d 78 01             	lea    0x1(%rax),%edi
  40109b:	e8 20 fc ff ff       	callq  400cc0 <srandom@plt>
  4010a0:	e8 3b fd ff ff       	callq  400de0 <random@plt>
  4010a5:	89 c7                	mov    %eax,%edi
  4010a7:	e8 03 03 00 00       	callq  4013af <scramble>
  4010ac:	89 c3                	mov    %eax,%ebx
  4010ae:	85 ed                	test   %ebp,%ebp
  4010b0:	74 18                	je     4010ca <initialize_target+0x7a>
  4010b2:	bf 00 00 00 00       	mov    $0x0,%edi
  4010b7:	e8 14 fd ff ff       	callq  400dd0 <time@plt>
  4010bc:	89 c7                	mov    %eax,%edi
  4010be:	e8 fd fb ff ff       	callq  400cc0 <srandom@plt>
  4010c3:	e8 18 fd ff ff       	callq  400de0 <random@plt>
  4010c8:	eb 05                	jmp    4010cf <initialize_target+0x7f>
  4010ca:	b8 00 00 00 00       	mov    $0x0,%eax
  4010cf:	01 c3                	add    %eax,%ebx
  4010d1:	0f b7 db             	movzwl %bx,%ebx
  4010d4:	8d 04 dd 00 01 00 00 	lea    0x100(,%rbx,8),%eax
  4010db:	89 c0                	mov    %eax,%eax
  4010dd:	48 89 05 bc 43 20 00 	mov    %rax,0x2043bc(%rip)        # 6054a0 <buf_offset>
  4010e4:	c6 05 5d 50 20 00 63 	movb   $0x63,0x20505d(%rip)        # 606148 <target_prefix>
  4010eb:	83 3d b6 43 20 00 00 	cmpl   $0x0,0x2043b6(%rip)        # 6054a8 <notify>
  4010f2:	0f 84 bb 00 00 00    	je     4011b3 <initialize_target+0x163>
  4010f8:	83 3d 29 44 20 00 00 	cmpl   $0x0,0x204429(%rip)        # 605528 <is_checker>
  4010ff:	0f 85 ae 00 00 00    	jne    4011b3 <initialize_target+0x163>
  401105:	be 00 01 00 00       	mov    $0x100,%esi
  40110a:	48 89 e7             	mov    %rsp,%rdi
  40110d:	e8 4e fd ff ff       	callq  400e60 <gethostname@plt>
  401112:	85 c0                	test   %eax,%eax
  401114:	74 25                	je     40113b <initialize_target+0xeb>
  401116:	bf 58 2f 40 00       	mov    $0x402f58,%edi
  40111b:	e8 d0 fb ff ff       	callq  400cf0 <puts@plt>
  401120:	bf 08 00 00 00       	mov    $0x8,%edi
  401125:	e8 46 fd ff ff       	callq  400e70 <exit@plt>
  40112a:	48 89 e6             	mov    %rsp,%rsi
  40112d:	e8 6e fb ff ff       	callq  400ca0 <strcasecmp@plt>
  401132:	85 c0                	test   %eax,%eax
  401134:	74 21                	je     401157 <initialize_target+0x107>
  401136:	83 c3 01             	add    $0x1,%ebx
  401139:	eb 05                	jmp    401140 <initialize_target+0xf0>
  40113b:	bb 00 00 00 00       	mov    $0x0,%ebx
  401140:	48 63 c3             	movslq %ebx,%rax
  401143:	48 8b 3c c5 80 51 60 	mov    0x605180(,%rax,8),%rdi
  40114a:	00 
  40114b:	48 85 ff             	test   %rdi,%rdi
  40114e:	75 da                	jne    40112a <initialize_target+0xda>
  401150:	b8 00 00 00 00       	mov    $0x0,%eax
  401155:	eb 05                	jmp    40115c <initialize_target+0x10c>
  401157:	b8 01 00 00 00       	mov    $0x1,%eax
  40115c:	85 c0                	test   %eax,%eax
  40115e:	75 1c                	jne    40117c <initialize_target+0x12c>
  401160:	48 89 e2             	mov    %rsp,%rdx
  401163:	be 90 2f 40 00       	mov    $0x402f90,%esi
  401168:	bf 01 00 00 00       	mov    $0x1,%edi
  40116d:	e8 ae fc ff ff       	callq  400e20 <__printf_chk@plt>
  401172:	bf 08 00 00 00       	mov    $0x8,%edi
  401177:	e8 f4 fc ff ff       	callq  400e70 <exit@plt>
  40117c:	48 8d bc 24 00 01 00 	lea    0x100(%rsp),%rdi
  401183:	00 
  401184:	e8 ab 19 00 00       	callq  402b34 <init_driver>
  401189:	85 c0                	test   %eax,%eax
  40118b:	79 26                	jns    4011b3 <initialize_target+0x163>
  40118d:	48 8d 94 24 00 01 00 	lea    0x100(%rsp),%rdx
  401194:	00 
  401195:	be d0 2f 40 00       	mov    $0x402fd0,%esi
  40119a:	bf 01 00 00 00       	mov    $0x1,%edi
  40119f:	b8 00 00 00 00       	mov    $0x0,%eax
  4011a4:	e8 77 fc ff ff       	callq  400e20 <__printf_chk@plt>
  4011a9:	bf 08 00 00 00       	mov    $0x8,%edi
  4011ae:	e8 bd fc ff ff       	callq  400e70 <exit@plt>
  4011b3:	48 8b 84 24 08 21 00 	mov    0x2108(%rsp),%rax
  4011ba:	00 
  4011bb:	64 48 33 04 25 28 00 	xor    %fs:0x28,%rax
  4011c2:	00 00 
  4011c4:	74 05                	je     4011cb <initialize_target+0x17b>
  4011c6:	e8 45 fb ff ff       	callq  400d10 <__stack_chk_fail@plt>
  4011cb:	48 81 c4 18 21 00 00 	add    $0x2118,%rsp
  4011d2:	5b                   	pop    %rbx
  4011d3:	5d                   	pop    %rbp
  4011d4:	c3                   	retq   

00000000004011d5 <main>:
  4011d5:	41 56                	push   %r14
  4011d7:	41 55                	push   %r13
  4011d9:	41 54                	push   %r12
  4011db:	55                   	push   %rbp
  4011dc:	53                   	push   %rbx
  4011dd:	41 89 fc             	mov    %edi,%r12d
  4011e0:	48 89 f3             	mov    %rsi,%rbx
  4011e3:	be 54 1e 40 00       	mov    $0x401e54,%esi
  4011e8:	bf 0b 00 00 00       	mov    $0xb,%edi
  4011ed:	e8 8e fb ff ff       	callq  400d80 <signal@plt>
  4011f2:	be 06 1e 40 00       	mov    $0x401e06,%esi
  4011f7:	bf 07 00 00 00       	mov    $0x7,%edi
  4011fc:	e8 7f fb ff ff       	callq  400d80 <signal@plt>
  401201:	be a2 1e 40 00       	mov    $0x401ea2,%esi
  401206:	bf 04 00 00 00       	mov    $0x4,%edi
  40120b:	e8 70 fb ff ff       	callq  400d80 <signal@plt>
  401210:	83 3d 11 43 20 00 00 	cmpl   $0x0,0x204311(%rip)        # 605528 <is_checker>
  401217:	74 20                	je     401239 <main+0x64>
  401219:	be f0 1e 40 00       	mov    $0x401ef0,%esi
  40121e:	bf 0e 00 00 00       	mov    $0xe,%edi
  401223:	e8 58 fb ff ff       	callq  400d80 <signal@plt>
  401228:	bf 05 00 00 00       	mov    $0x5,%edi
  40122d:	e8 0e fb ff ff       	callq  400d40 <alarm@plt>
  401232:	bd 9a 30 40 00       	mov    $0x40309a,%ebp
  401237:	eb 05                	jmp    40123e <main+0x69>
  401239:	bd 95 30 40 00       	mov    $0x403095,%ebp
  40123e:	48 8b 05 7b 42 20 00 	mov    0x20427b(%rip),%rax        # 6054c0 <stdin@@GLIBC_2.2.5>
  401245:	48 89 05 c4 42 20 00 	mov    %rax,0x2042c4(%rip)        # 605510 <infile>
  40124c:	41 bd 00 00 00 00    	mov    $0x0,%r13d
  401252:	41 be 00 00 00 00    	mov    $0x0,%r14d
  401258:	e9 c6 00 00 00       	jmpq   401323 <main+0x14e>
  40125d:	83 e8 61             	sub    $0x61,%eax
  401260:	3c 10                	cmp    $0x10,%al
  401262:	0f 87 9c 00 00 00    	ja     401304 <main+0x12f>
  401268:	0f b6 c0             	movzbl %al,%eax
  40126b:	ff 24 c5 e0 30 40 00 	jmpq   *0x4030e0(,%rax,8)
  401272:	48 8b 3b             	mov    (%rbx),%rdi
  401275:	e8 4c fd ff ff       	callq  400fc6 <usage>
  40127a:	be ed 33 40 00       	mov    $0x4033ed,%esi
  40127f:	48 8b 3d 42 42 20 00 	mov    0x204242(%rip),%rdi        # 6054c8 <optarg@@GLIBC_2.2.5>
  401286:	e8 a5 fb ff ff       	callq  400e30 <fopen@plt>
  40128b:	48 89 05 7e 42 20 00 	mov    %rax,0x20427e(%rip)        # 605510 <infile>
  401292:	48 85 c0             	test   %rax,%rax
  401295:	0f 85 88 00 00 00    	jne    401323 <main+0x14e>
  40129b:	48 8b 0d 26 42 20 00 	mov    0x204226(%rip),%rcx        # 6054c8 <optarg@@GLIBC_2.2.5>
  4012a2:	ba a2 30 40 00       	mov    $0x4030a2,%edx
  4012a7:	be 01 00 00 00       	mov    $0x1,%esi
  4012ac:	48 8b 3d 2d 42 20 00 	mov    0x20422d(%rip),%rdi        # 6054e0 <stderr@@GLIBC_2.2.5>
  4012b3:	e8 d8 fb ff ff       	callq  400e90 <__fprintf_chk@plt>
  4012b8:	b8 01 00 00 00       	mov    $0x1,%eax
  4012bd:	e9 e4 00 00 00       	jmpq   4013a6 <main+0x1d1>
  4012c2:	ba 10 00 00 00       	mov    $0x10,%edx
  4012c7:	be 00 00 00 00       	mov    $0x0,%esi
  4012cc:	48 8b 3d f5 41 20 00 	mov    0x2041f5(%rip),%rdi        # 6054c8 <optarg@@GLIBC_2.2.5>
  4012d3:	e8 78 fb ff ff       	callq  400e50 <strtoul@plt>
  4012d8:	41 89 c6             	mov    %eax,%r14d
  4012db:	eb 46                	jmp    401323 <main+0x14e>
  4012dd:	ba 0a 00 00 00       	mov    $0xa,%edx
  4012e2:	be 00 00 00 00       	mov    $0x0,%esi
  4012e7:	48 8b 3d da 41 20 00 	mov    0x2041da(%rip),%rdi        # 6054c8 <optarg@@GLIBC_2.2.5>
  4012ee:	e8 bd fa ff ff       	callq  400db0 <strtol@plt>
  4012f3:	41 89 c5             	mov    %eax,%r13d
  4012f6:	eb 2b                	jmp    401323 <main+0x14e>
  4012f8:	c7 05 a6 41 20 00 00 	movl   $0x0,0x2041a6(%rip)        # 6054a8 <notify>
  4012ff:	00 00 00 
  401302:	eb 1f                	jmp    401323 <main+0x14e>
  401304:	0f be d2             	movsbl %dl,%edx
  401307:	be bf 30 40 00       	mov    $0x4030bf,%esi
  40130c:	bf 01 00 00 00       	mov    $0x1,%edi
  401311:	b8 00 00 00 00       	mov    $0x0,%eax
  401316:	e8 05 fb ff ff       	callq  400e20 <__printf_chk@plt>
  40131b:	48 8b 3b             	mov    (%rbx),%rdi
  40131e:	e8 a3 fc ff ff       	callq  400fc6 <usage>
  401323:	48 89 ea             	mov    %rbp,%rdx
  401326:	48 89 de             	mov    %rbx,%rsi
  401329:	44 89 e7             	mov    %r12d,%edi
  40132c:	e8 0f fb ff ff       	callq  400e40 <getopt@plt>
  401331:	89 c2                	mov    %eax,%edx
  401333:	3c ff                	cmp    $0xff,%al
  401335:	0f 85 22 ff ff ff    	jne    40125d <main+0x88>
  40133b:	be 00 00 00 00       	mov    $0x0,%esi
  401340:	44 89 ef             	mov    %r13d,%edi
  401343:	e8 08 fd ff ff       	callq  401050 <initialize_target>
  401348:	83 3d d9 41 20 00 00 	cmpl   $0x0,0x2041d9(%rip)        # 605528 <is_checker>
  40134f:	74 2a                	je     40137b <main+0x1a6>
  401351:	44 3b 35 c8 41 20 00 	cmp    0x2041c8(%rip),%r14d        # 605520 <authkey>
  401358:	74 21                	je     40137b <main+0x1a6>
  40135a:	44 89 f2             	mov    %r14d,%edx
  40135d:	be f8 2f 40 00       	mov    $0x402ff8,%esi
  401362:	bf 01 00 00 00       	mov    $0x1,%edi
  401367:	b8 00 00 00 00       	mov    $0x0,%eax
  40136c:	e8 af fa ff ff       	callq  400e20 <__printf_chk@plt>
  401371:	b8 00 00 00 00       	mov    $0x0,%eax
  401376:	e8 27 07 00 00       	callq  401aa2 <check_fail>
  40137b:	8b 15 a3 41 20 00    	mov    0x2041a3(%rip),%edx        # 605524 <cookie>
  401381:	be d2 30 40 00       	mov    $0x4030d2,%esi
  401386:	bf 01 00 00 00       	mov    $0x1,%edi
  40138b:	b8 00 00 00 00       	mov    $0x0,%eax
  401390:	e8 8b fa ff ff       	callq  400e20 <__printf_chk@plt>
  401395:	48 8b 3d 04 41 20 00 	mov    0x204104(%rip),%rdi        # 6054a0 <buf_offset>
  40139c:	e8 4f 0c 00 00       	callq  401ff0 <stable_launch>
  4013a1:	b8 00 00 00 00       	mov    $0x0,%eax
  4013a6:	5b                   	pop    %rbx
  4013a7:	5d                   	pop    %rbp
  4013a8:	41 5c                	pop    %r12
  4013aa:	41 5d                	pop    %r13
  4013ac:	41 5e                	pop    %r14
  4013ae:	c3                   	retq   

00000000004013af <scramble>:
  4013af:	48 83 ec 38          	sub    $0x38,%rsp
  4013b3:	64 48 8b 04 25 28 00 	mov    %fs:0x28,%rax
  4013ba:	00 00 
  4013bc:	48 89 44 24 28       	mov    %rax,0x28(%rsp)
  4013c1:	31 c0                	xor    %eax,%eax
  4013c3:	eb 10                	jmp    4013d5 <scramble+0x26>
  4013c5:	69 d0 07 25 00 00    	imul   $0x2507,%eax,%edx
  4013cb:	01 fa                	add    %edi,%edx
  4013cd:	89 c1                	mov    %eax,%ecx
  4013cf:	89 14 8c             	mov    %edx,(%rsp,%rcx,4)
  4013d2:	83 c0 01             	add    $0x1,%eax
  4013d5:	83 f8 09             	cmp    $0x9,%eax
  4013d8:	76 eb                	jbe    4013c5 <scramble+0x16>
  4013da:	8b 44 24 08          	mov    0x8(%rsp),%eax
  4013de:	69 c0 c5 ec 00 00    	imul   $0xecc5,%eax,%eax
  4013e4:	89 44 24 08          	mov    %eax,0x8(%rsp)
  4013e8:	8b 44 24 08          	mov    0x8(%rsp),%eax
  4013ec:	69 c0 2d 86 00 00    	imul   $0x862d,%eax,%eax
  4013f2:	89 44 24 08          	mov    %eax,0x8(%rsp)
  4013f6:	8b 44 24 24          	mov    0x24(%rsp),%eax
  4013fa:	69 c0 1f aa 00 00    	imul   $0xaa1f,%eax,%eax
  401400:	89 44 24 24          	mov    %eax,0x24(%rsp)
  401404:	8b 44 24 0c          	mov    0xc(%rsp),%eax
  401408:	69 c0 87 c3 00 00    	imul   $0xc387,%eax,%eax
  40140e:	89 44 24 0c          	mov    %eax,0xc(%rsp)
  401412:	8b 44 24 0c          	mov    0xc(%rsp),%eax
  401416:	69 c0 32 fc 00 00    	imul   $0xfc32,%eax,%eax
  40141c:	89 44 24 0c          	mov    %eax,0xc(%rsp)
  401420:	8b 44 24 24          	mov    0x24(%rsp),%eax
  401424:	69 c0 b0 5e 00 00    	imul   $0x5eb0,%eax,%eax
  40142a:	89 44 24 24          	mov    %eax,0x24(%rsp)
  40142e:	8b 44 24 18          	mov    0x18(%rsp),%eax
  401432:	69 c0 5d e2 00 00    	imul   $0xe25d,%eax,%eax
  401438:	89 44 24 18          	mov    %eax,0x18(%rsp)
  40143c:	8b 44 24 1c          	mov    0x1c(%rsp),%eax
  401440:	69 c0 10 26 00 00    	imul   $0x2610,%eax,%eax
  401446:	89 44 24 1c          	mov    %eax,0x1c(%rsp)
  40144a:	8b 04 24             	mov    (%rsp),%eax
  40144d:	69 c0 9a fb 00 00    	imul   $0xfb9a,%eax,%eax
  401453:	89 04 24             	mov    %eax,(%rsp)
  401456:	8b 44 24 1c          	mov    0x1c(%rsp),%eax
  40145a:	69 c0 77 e5 00 00    	imul   $0xe577,%eax,%eax
  401460:	89 44 24 1c          	mov    %eax,0x1c(%rsp)
  401464:	8b 44 24 20          	mov    0x20(%rsp),%eax
  401468:	69 c0 6b 2a 00 00    	imul   $0x2a6b,%eax,%eax
  40146e:	89 44 24 20          	mov    %eax,0x20(%rsp)
  401472:	8b 44 24 18          	mov    0x18(%rsp),%eax
  401476:	69 c0 66 d8 00 00    	imul   $0xd866,%eax,%eax
  40147c:	89 44 24 18          	mov    %eax,0x18(%rsp)
  401480:	8b 44 24 10          	mov    0x10(%rsp),%eax
  401484:	69 c0 49 09 00 00    	imul   $0x949,%eax,%eax
  40148a:	89 44 24 10          	mov    %eax,0x10(%rsp)
  40148e:	8b 44 24 14          	mov    0x14(%rsp),%eax
  401492:	69 c0 da 2b 00 00    	imul   $0x2bda,%eax,%eax
  401498:	89 44 24 14          	mov    %eax,0x14(%rsp)
  40149c:	8b 44 24 24          	mov    0x24(%rsp),%eax
  4014a0:	69 c0 f5 d4 00 00    	imul   $0xd4f5,%eax,%eax
  4014a6:	89 44 24 24          	mov    %eax,0x24(%rsp)
  4014aa:	8b 44 24 18          	mov    0x18(%rsp),%eax
  4014ae:	69 c0 e0 5f 00 00    	imul   $0x5fe0,%eax,%eax
  4014b4:	89 44 24 18          	mov    %eax,0x18(%rsp)
  4014b8:	8b 44 24 18          	mov    0x18(%rsp),%eax
  4014bc:	69 c0 15 e7 00 00    	imul   $0xe715,%eax,%eax
  4014c2:	89 44 24 18          	mov    %eax,0x18(%rsp)
  4014c6:	8b 44 24 18          	mov    0x18(%rsp),%eax
  4014ca:	69 c0 3c a9 00 00    	imul   $0xa93c,%eax,%eax
  4014d0:	89 44 24 18          	mov    %eax,0x18(%rsp)
  4014d4:	8b 44 24 04          	mov    0x4(%rsp),%eax
  4014d8:	69 c0 cf d3 00 00    	imul   $0xd3cf,%eax,%eax
  4014de:	89 44 24 04          	mov    %eax,0x4(%rsp)
  4014e2:	8b 44 24 24          	mov    0x24(%rsp),%eax
  4014e6:	69 c0 28 7e 00 00    	imul   $0x7e28,%eax,%eax
  4014ec:	89 44 24 24          	mov    %eax,0x24(%rsp)
  4014f0:	8b 44 24 18          	mov    0x18(%rsp),%eax
  4014f4:	69 c0 be 32 00 00    	imul   $0x32be,%eax,%eax
  4014fa:	89 44 24 18          	mov    %eax,0x18(%rsp)
  4014fe:	8b 44 24 24          	mov    0x24(%rsp),%eax
  401502:	69 c0 e6 5b 00 00    	imul   $0x5be6,%eax,%eax
  401508:	89 44 24 24          	mov    %eax,0x24(%rsp)
  40150c:	8b 44 24 20          	mov    0x20(%rsp),%eax
  401510:	69 c0 b6 99 00 00    	imul   $0x99b6,%eax,%eax
  401516:	89 44 24 20          	mov    %eax,0x20(%rsp)
  40151a:	8b 44 24 20          	mov    0x20(%rsp),%eax
  40151e:	69 c0 26 89 00 00    	imul   $0x8926,%eax,%eax
  401524:	89 44 24 20          	mov    %eax,0x20(%rsp)
  401528:	8b 44 24 08          	mov    0x8(%rsp),%eax
  40152c:	69 c0 a6 6c 00 00    	imul   $0x6ca6,%eax,%eax
  401532:	89 44 24 08          	mov    %eax,0x8(%rsp)
  401536:	8b 44 24 04          	mov    0x4(%rsp),%eax
  40153a:	69 c0 c5 13 00 00    	imul   $0x13c5,%eax,%eax
  401540:	89 44 24 04          	mov    %eax,0x4(%rsp)
  401544:	8b 44 24 20          	mov    0x20(%rsp),%eax
  401548:	69 c0 c0 26 00 00    	imul   $0x26c0,%eax,%eax
  40154e:	89 44 24 20          	mov    %eax,0x20(%rsp)
  401552:	8b 44 24 20          	mov    0x20(%rsp),%eax
  401556:	69 c0 c1 76 00 00    	imul   $0x76c1,%eax,%eax
  40155c:	89 44 24 20          	mov    %eax,0x20(%rsp)
  401560:	8b 44 24 24          	mov    0x24(%rsp),%eax
  401564:	69 c0 00 d4 00 00    	imul   $0xd400,%eax,%eax
  40156a:	89 44 24 24          	mov    %eax,0x24(%rsp)
  40156e:	8b 44 24 1c          	mov    0x1c(%rsp),%eax
  401572:	69 c0 e3 6a 00 00    	imul   $0x6ae3,%eax,%eax
  401578:	89 44 24 1c          	mov    %eax,0x1c(%rsp)
  40157c:	8b 44 24 18          	mov    0x18(%rsp),%eax
  401580:	69 c0 e7 7d 00 00    	imul   $0x7de7,%eax,%eax
  401586:	89 44 24 18          	mov    %eax,0x18(%rsp)
  40158a:	8b 44 24 08          	mov    0x8(%rsp),%eax
  40158e:	69 c0 b0 6a 00 00    	imul   $0x6ab0,%eax,%eax
  401594:	89 44 24 08          	mov    %eax,0x8(%rsp)
  401598:	8b 44 24 08          	mov    0x8(%rsp),%eax
  40159c:	69 c0 d2 b0 00 00    	imul   $0xb0d2,%eax,%eax
  4015a2:	89 44 24 08          	mov    %eax,0x8(%rsp)
  4015a6:	8b 44 24 24          	mov    0x24(%rsp),%eax
  4015aa:	69 c0 31 f6 00 00    	imul   $0xf631,%eax,%eax
  4015b0:	89 44 24 24          	mov    %eax,0x24(%rsp)
  4015b4:	8b 44 24 0c          	mov    0xc(%rsp),%eax
  4015b8:	69 c0 b0 80 00 00    	imul   $0x80b0,%eax,%eax
  4015be:	89 44 24 0c          	mov    %eax,0xc(%rsp)
  4015c2:	8b 44 24 08          	mov    0x8(%rsp),%eax
  4015c6:	69 c0 a2 54 00 00    	imul   $0x54a2,%eax,%eax
  4015cc:	89 44 24 08          	mov    %eax,0x8(%rsp)
  4015d0:	8b 04 24             	mov    (%rsp),%eax
  4015d3:	69 c0 31 51 00 00    	imul   $0x5131,%eax,%eax
  4015d9:	89 04 24             	mov    %eax,(%rsp)
  4015dc:	8b 44 24 14          	mov    0x14(%rsp),%eax
  4015e0:	69 c0 8a c8 00 00    	imul   $0xc88a,%eax,%eax
  4015e6:	89 44 24 14          	mov    %eax,0x14(%rsp)
  4015ea:	8b 44 24 08          	mov    0x8(%rsp),%eax
  4015ee:	69 c0 7e 32 00 00    	imul   $0x327e,%eax,%eax
  4015f4:	89 44 24 08          	mov    %eax,0x8(%rsp)
  4015f8:	8b 44 24 20          	mov    0x20(%rsp),%eax
  4015fc:	69 c0 38 80 00 00    	imul   $0x8038,%eax,%eax
  401602:	89 44 24 20          	mov    %eax,0x20(%rsp)
  401606:	8b 44 24 24          	mov    0x24(%rsp),%eax
  40160a:	69 c0 4e c0 00 00    	imul   $0xc04e,%eax,%eax
  401610:	89 44 24 24          	mov    %eax,0x24(%rsp)
  401614:	8b 44 24 1c          	mov    0x1c(%rsp),%eax
  401618:	69 c0 36 36 00 00    	imul   $0x3636,%eax,%eax
  40161e:	89 44 24 1c          	mov    %eax,0x1c(%rsp)
  401622:	8b 44 24 24          	mov    0x24(%rsp),%eax
  401626:	69 c0 29 80 00 00    	imul   $0x8029,%eax,%eax
  40162c:	89 44 24 24          	mov    %eax,0x24(%rsp)
  401630:	8b 44 24 10          	mov    0x10(%rsp),%eax
  401634:	69 c0 19 17 00 00    	imul   $0x1719,%eax,%eax
  40163a:	89 44 24 10          	mov    %eax,0x10(%rsp)
  40163e:	8b 44 24 08          	mov    0x8(%rsp),%eax
  401642:	69 c0 93 4f 00 00    	imul   $0x4f93,%eax,%eax
  401648:	89 44 24 08          	mov    %eax,0x8(%rsp)
  40164c:	8b 44 24 08          	mov    0x8(%rsp),%eax
  401650:	69 c0 1f fd 00 00    	imul   $0xfd1f,%eax,%eax
  401656:	89 44 24 08          	mov    %eax,0x8(%rsp)
  40165a:	8b 44 24 14          	mov    0x14(%rsp),%eax
  40165e:	69 c0 c0 4c 00 00    	imul   $0x4cc0,%eax,%eax
  401664:	89 44 24 14          	mov    %eax,0x14(%rsp)
  401668:	8b 44 24 08          	mov    0x8(%rsp),%eax
  40166c:	69 c0 76 32 00 00    	imul   $0x3276,%eax,%eax
  401672:	89 44 24 08          	mov    %eax,0x8(%rsp)
  401676:	8b 44 24 14          	mov    0x14(%rsp),%eax
  40167a:	69 c0 bc 7b 00 00    	imul   $0x7bbc,%eax,%eax
  401680:	89 44 24 14          	mov    %eax,0x14(%rsp)
  401684:	8b 44 24 18          	mov    0x18(%rsp),%eax
  401688:	69 c0 33 82 00 00    	imul   $0x8233,%eax,%eax
  40168e:	89 44 24 18          	mov    %eax,0x18(%rsp)
  401692:	8b 44 24 04          	mov    0x4(%rsp),%eax
  401696:	69 c0 00 9d 00 00    	imul   $0x9d00,%eax,%eax
  40169c:	89 44 24 04          	mov    %eax,0x4(%rsp)
  4016a0:	8b 44 24 04          	mov    0x4(%rsp),%eax
  4016a4:	69 c0 da af 00 00    	imul   $0xafda,%eax,%eax
  4016aa:	89 44 24 04          	mov    %eax,0x4(%rsp)
  4016ae:	8b 44 24 08          	mov    0x8(%rsp),%eax
  4016b2:	69 c0 5d 87 00 00    	imul   $0x875d,%eax,%eax
  4016b8:	89 44 24 08          	mov    %eax,0x8(%rsp)
  4016bc:	8b 44 24 24          	mov    0x24(%rsp),%eax
  4016c0:	69 c0 19 d9 00 00    	imul   $0xd919,%eax,%eax
  4016c6:	89 44 24 24          	mov    %eax,0x24(%rsp)
  4016ca:	8b 44 24 04          	mov    0x4(%rsp),%eax
  4016ce:	69 c0 15 ca 00 00    	imul   $0xca15,%eax,%eax
  4016d4:	89 44 24 04          	mov    %eax,0x4(%rsp)
  4016d8:	8b 44 24 04          	mov    0x4(%rsp),%eax
  4016dc:	69 c0 00 59 00 00    	imul   $0x5900,%eax,%eax
  4016e2:	89 44 24 04          	mov    %eax,0x4(%rsp)
  4016e6:	8b 04 24             	mov    (%rsp),%eax
  4016e9:	69 c0 4e ed 00 00    	imul   $0xed4e,%eax,%eax
  4016ef:	89 04 24             	mov    %eax,(%rsp)
  4016f2:	8b 44 24 10          	mov    0x10(%rsp),%eax
  4016f6:	69 c0 72 71 00 00    	imul   $0x7172,%eax,%eax
  4016fc:	89 44 24 10          	mov    %eax,0x10(%rsp)
  401700:	8b 44 24 24          	mov    0x24(%rsp),%eax
  401704:	69 c0 2d 3c 00 00    	imul   $0x3c2d,%eax,%eax
  40170a:	89 44 24 24          	mov    %eax,0x24(%rsp)
  40170e:	8b 44 24 08          	mov    0x8(%rsp),%eax
  401712:	69 c0 a2 c1 00 00    	imul   $0xc1a2,%eax,%eax
  401718:	89 44 24 08          	mov    %eax,0x8(%rsp)
  40171c:	8b 44 24 24          	mov    0x24(%rsp),%eax
  401720:	69 c0 88 0a 00 00    	imul   $0xa88,%eax,%eax
  401726:	89 44 24 24          	mov    %eax,0x24(%rsp)
  40172a:	8b 44 24 08          	mov    0x8(%rsp),%eax
  40172e:	69 c0 3a 59 00 00    	imul   $0x593a,%eax,%eax
  401734:	89 44 24 08          	mov    %eax,0x8(%rsp)
  401738:	8b 44 24 04          	mov    0x4(%rsp),%eax
  40173c:	69 c0 91 26 00 00    	imul   $0x2691,%eax,%eax
  401742:	89 44 24 04          	mov    %eax,0x4(%rsp)
  401746:	8b 44 24 1c          	mov    0x1c(%rsp),%eax
  40174a:	69 c0 db 54 00 00    	imul   $0x54db,%eax,%eax
  401750:	89 44 24 1c          	mov    %eax,0x1c(%rsp)
  401754:	8b 44 24 20          	mov    0x20(%rsp),%eax
  401758:	69 c0 58 b4 00 00    	imul   $0xb458,%eax,%eax
  40175e:	89 44 24 20          	mov    %eax,0x20(%rsp)
  401762:	8b 44 24 24          	mov    0x24(%rsp),%eax
  401766:	69 c0 b9 9e 00 00    	imul   $0x9eb9,%eax,%eax
  40176c:	89 44 24 24          	mov    %eax,0x24(%rsp)
  401770:	8b 44 24 14          	mov    0x14(%rsp),%eax
  401774:	69 c0 e4 ad 00 00    	imul   $0xade4,%eax,%eax
  40177a:	89 44 24 14          	mov    %eax,0x14(%rsp)
  40177e:	8b 44 24 04          	mov    0x4(%rsp),%eax
  401782:	69 c0 8a 3f 00 00    	imul   $0x3f8a,%eax,%eax
  401788:	89 44 24 04          	mov    %eax,0x4(%rsp)
  40178c:	8b 44 24 04          	mov    0x4(%rsp),%eax
  401790:	69 c0 f8 c6 00 00    	imul   $0xc6f8,%eax,%eax
  401796:	89 44 24 04          	mov    %eax,0x4(%rsp)
  40179a:	8b 44 24 1c          	mov    0x1c(%rsp),%eax
  40179e:	69 c0 1d ef 00 00    	imul   $0xef1d,%eax,%eax
  4017a4:	89 44 24 1c          	mov    %eax,0x1c(%rsp)
  4017a8:	8b 44 24 04          	mov    0x4(%rsp),%eax
  4017ac:	69 c0 f4 71 00 00    	imul   $0x71f4,%eax,%eax
  4017b2:	89 44 24 04          	mov    %eax,0x4(%rsp)
  4017b6:	8b 44 24 24          	mov    0x24(%rsp),%eax
  4017ba:	69 c0 70 1b 00 00    	imul   $0x1b70,%eax,%eax
  4017c0:	89 44 24 24          	mov    %eax,0x24(%rsp)
  4017c4:	8b 44 24 04          	mov    0x4(%rsp),%eax
  4017c8:	69 c0 53 d7 00 00    	imul   $0xd753,%eax,%eax
  4017ce:	89 44 24 04          	mov    %eax,0x4(%rsp)
  4017d2:	8b 44 24 18          	mov    0x18(%rsp),%eax
  4017d6:	69 c0 bb cc 00 00    	imul   $0xccbb,%eax,%eax
  4017dc:	89 44 24 18          	mov    %eax,0x18(%rsp)
  4017e0:	8b 44 24 04          	mov    0x4(%rsp),%eax
  4017e4:	69 c0 6e 15 00 00    	imul   $0x156e,%eax,%eax
  4017ea:	89 44 24 04          	mov    %eax,0x4(%rsp)
  4017ee:	8b 44 24 18          	mov    0x18(%rsp),%eax
  4017f2:	69 c0 41 9f 00 00    	imul   $0x9f41,%eax,%eax
  4017f8:	89 44 24 18          	mov    %eax,0x18(%rsp)
  4017fc:	8b 44 24 1c          	mov    0x1c(%rsp),%eax
  401800:	69 c0 1e 4d 00 00    	imul   $0x4d1e,%eax,%eax
  401806:	89 44 24 1c          	mov    %eax,0x1c(%rsp)
  40180a:	8b 44 24 24          	mov    0x24(%rsp),%eax
  40180e:	69 c0 3f 77 00 00    	imul   $0x773f,%eax,%eax
  401814:	89 44 24 24          	mov    %eax,0x24(%rsp)
  401818:	ba 00 00 00 00       	mov    $0x0,%edx
  40181d:	b8 00 00 00 00       	mov    $0x0,%eax
  401822:	eb 0a                	jmp    40182e <scramble+0x47f>
  401824:	89 d1                	mov    %edx,%ecx
  401826:	8b 0c 8c             	mov    (%rsp,%rcx,4),%ecx
  401829:	01 c8                	add    %ecx,%eax
  40182b:	83 c2 01             	add    $0x1,%edx
  40182e:	83 fa 09             	cmp    $0x9,%edx
  401831:	76 f1                	jbe    401824 <scramble+0x475>
  401833:	48 8b 74 24 28       	mov    0x28(%rsp),%rsi
  401838:	64 48 33 34 25 28 00 	xor    %fs:0x28,%rsi
  40183f:	00 00 
  401841:	74 05                	je     401848 <scramble+0x499>
  401843:	e8 c8 f4 ff ff       	callq  400d10 <__stack_chk_fail@plt>
  401848:	48 83 c4 38          	add    $0x38,%rsp
  40184c:	c3                   	retq   

000000000040184d <getbuf>:
  40184d:	48 83 ec 18          	sub    $0x18,%rsp
  401851:	48 89 e7             	mov    %rsp,%rdi
  401854:	e8 7e 02 00 00       	callq  401ad7 <Gets>
  401859:	b8 01 00 00 00       	mov    $0x1,%eax
  40185e:	48 83 c4 18          	add    $0x18,%rsp
  401862:	c3                   	retq   

0000000000401863 <touch1>:
  401863:	48 83 ec 08          	sub    $0x8,%rsp
  401867:	c7 05 ab 3c 20 00 01 	movl   $0x1,0x203cab(%rip)        # 60551c <vlevel>
  40186e:	00 00 00 
  401871:	bf 46 32 40 00       	mov    $0x403246,%edi
  401876:	e8 75 f4 ff ff       	callq  400cf0 <puts@plt>
  40187b:	bf 01 00 00 00       	mov    $0x1,%edi
  401880:	e8 97 04 00 00       	callq  401d1c <validate>
  401885:	bf 00 00 00 00       	mov    $0x0,%edi
  40188a:	e8 e1 f5 ff ff       	callq  400e70 <exit@plt>

000000000040188f <touch2>:
  40188f:	48 83 ec 08          	sub    $0x8,%rsp
  401893:	89 fa                	mov    %edi,%edx
  401895:	c7 05 7d 3c 20 00 02 	movl   $0x2,0x203c7d(%rip)        # 60551c <vlevel>
  40189c:	00 00 00 
  40189f:	39 3d 7f 3c 20 00    	cmp    %edi,0x203c7f(%rip)        # 605524 <cookie>
  4018a5:	75 20                	jne    4018c7 <touch2+0x38>
  4018a7:	be 68 32 40 00       	mov    $0x403268,%esi
  4018ac:	bf 01 00 00 00       	mov    $0x1,%edi
  4018b1:	b8 00 00 00 00       	mov    $0x0,%eax
  4018b6:	e8 65 f5 ff ff       	callq  400e20 <__printf_chk@plt>
  4018bb:	bf 02 00 00 00       	mov    $0x2,%edi
  4018c0:	e8 57 04 00 00       	callq  401d1c <validate>
  4018c5:	eb 1e                	jmp    4018e5 <touch2+0x56>
  4018c7:	be 90 32 40 00       	mov    $0x403290,%esi
  4018cc:	bf 01 00 00 00       	mov    $0x1,%edi
  4018d1:	b8 00 00 00 00       	mov    $0x0,%eax
  4018d6:	e8 45 f5 ff ff       	callq  400e20 <__printf_chk@plt>
  4018db:	bf 02 00 00 00       	mov    $0x2,%edi
  4018e0:	e8 f9 04 00 00       	callq  401dde <fail>
  4018e5:	bf 00 00 00 00       	mov    $0x0,%edi
  4018ea:	e8 81 f5 ff ff       	callq  400e70 <exit@plt>

00000000004018ef <hexmatch>:
  4018ef:	41 54                	push   %r12
  4018f1:	55                   	push   %rbp
  4018f2:	53                   	push   %rbx
  4018f3:	48 83 c4 80          	add    $0xffffffffffffff80,%rsp
  4018f7:	89 fd                	mov    %edi,%ebp
  4018f9:	48 89 f3             	mov    %rsi,%rbx
  4018fc:	64 48 8b 04 25 28 00 	mov    %fs:0x28,%rax
  401903:	00 00 
  401905:	48 89 44 24 78       	mov    %rax,0x78(%rsp)
  40190a:	31 c0                	xor    %eax,%eax
  40190c:	e8 cf f4 ff ff       	callq  400de0 <random@plt>
  401911:	48 89 c1             	mov    %rax,%rcx
  401914:	48 ba 0b d7 a3 70 3d 	movabs $0xa3d70a3d70a3d70b,%rdx
  40191b:	0a d7 a3 
  40191e:	48 f7 ea             	imul   %rdx
  401921:	48 01 ca             	add    %rcx,%rdx
  401924:	48 c1 fa 06          	sar    $0x6,%rdx
  401928:	48 89 c8             	mov    %rcx,%rax
  40192b:	48 c1 f8 3f          	sar    $0x3f,%rax
  40192f:	48 29 c2             	sub    %rax,%rdx
  401932:	48 8d 04 92          	lea    (%rdx,%rdx,4),%rax
  401936:	48 8d 14 80          	lea    (%rax,%rax,4),%rdx
  40193a:	48 8d 04 95 00 00 00 	lea    0x0(,%rdx,4),%rax
  401941:	00 
  401942:	48 29 c1             	sub    %rax,%rcx
  401945:	4c 8d 24 0c          	lea    (%rsp,%rcx,1),%r12
  401949:	41 89 e8             	mov    %ebp,%r8d
  40194c:	b9 63 32 40 00       	mov    $0x403263,%ecx
  401951:	48 c7 c2 ff ff ff ff 	mov    $0xffffffffffffffff,%rdx
  401958:	be 01 00 00 00       	mov    $0x1,%esi
  40195d:	4c 89 e7             	mov    %r12,%rdi
  401960:	b8 00 00 00 00       	mov    $0x0,%eax
  401965:	e8 36 f5 ff ff       	callq  400ea0 <__sprintf_chk@plt>
  40196a:	ba 09 00 00 00       	mov    $0x9,%edx
  40196f:	4c 89 e6             	mov    %r12,%rsi
  401972:	48 89 df             	mov    %rbx,%rdi
  401975:	e8 56 f3 ff ff       	callq  400cd0 <strncmp@plt>
  40197a:	85 c0                	test   %eax,%eax
  40197c:	0f 94 c0             	sete   %al
  40197f:	48 8b 5c 24 78       	mov    0x78(%rsp),%rbx
  401984:	64 48 33 1c 25 28 00 	xor    %fs:0x28,%rbx
  40198b:	00 00 
  40198d:	74 05                	je     401994 <hexmatch+0xa5>
  40198f:	e8 7c f3 ff ff       	callq  400d10 <__stack_chk_fail@plt>
  401994:	0f b6 c0             	movzbl %al,%eax
  401997:	48 83 ec 80          	sub    $0xffffffffffffff80,%rsp
  40199b:	5b                   	pop    %rbx
  40199c:	5d                   	pop    %rbp
  40199d:	41 5c                	pop    %r12
  40199f:	c3                   	retq   

00000000004019a0 <touch3>:
  4019a0:	53                   	push   %rbx
  4019a1:	48 89 fb             	mov    %rdi,%rbx
  4019a4:	c7 05 6e 3b 20 00 03 	movl   $0x3,0x203b6e(%rip)        # 60551c <vlevel>
  4019ab:	00 00 00 
  4019ae:	48 89 fe             	mov    %rdi,%rsi
  4019b1:	8b 3d 6d 3b 20 00    	mov    0x203b6d(%rip),%edi        # 605524 <cookie>
  4019b7:	e8 33 ff ff ff       	callq  4018ef <hexmatch>
  4019bc:	85 c0                	test   %eax,%eax
  4019be:	74 23                	je     4019e3 <touch3+0x43>
  4019c0:	48 89 da             	mov    %rbx,%rdx
  4019c3:	be b8 32 40 00       	mov    $0x4032b8,%esi
  4019c8:	bf 01 00 00 00       	mov    $0x1,%edi
  4019cd:	b8 00 00 00 00       	mov    $0x0,%eax
  4019d2:	e8 49 f4 ff ff       	callq  400e20 <__printf_chk@plt>
  4019d7:	bf 03 00 00 00       	mov    $0x3,%edi
  4019dc:	e8 3b 03 00 00       	callq  401d1c <validate>
  4019e1:	eb 21                	jmp    401a04 <touch3+0x64>
  4019e3:	48 89 da             	mov    %rbx,%rdx
  4019e6:	be e0 32 40 00       	mov    $0x4032e0,%esi
  4019eb:	bf 01 00 00 00       	mov    $0x1,%edi
  4019f0:	b8 00 00 00 00       	mov    $0x0,%eax
  4019f5:	e8 26 f4 ff ff       	callq  400e20 <__printf_chk@plt>
  4019fa:	bf 03 00 00 00       	mov    $0x3,%edi
  4019ff:	e8 da 03 00 00       	callq  401dde <fail>
  401a04:	bf 00 00 00 00       	mov    $0x0,%edi
  401a09:	e8 62 f4 ff ff       	callq  400e70 <exit@plt>

0000000000401a0e <test>:
  401a0e:	48 83 ec 08          	sub    $0x8,%rsp
  401a12:	b8 00 00 00 00       	mov    $0x0,%eax
  401a17:	e8 31 fe ff ff       	callq  40184d <getbuf>
  401a1c:	89 c2                	mov    %eax,%edx
  401a1e:	be 08 33 40 00       	mov    $0x403308,%esi
  401a23:	bf 01 00 00 00       	mov    $0x1,%edi
  401a28:	b8 00 00 00 00       	mov    $0x0,%eax
  401a2d:	e8 ee f3 ff ff       	callq  400e20 <__printf_chk@plt>
  401a32:	48 83 c4 08          	add    $0x8,%rsp
  401a36:	c3                   	retq   

0000000000401a37 <save_char>:
  401a37:	8b 05 07 47 20 00    	mov    0x204707(%rip),%eax        # 606144 <gets_cnt>
  401a3d:	3d ff 03 00 00       	cmp    $0x3ff,%eax
  401a42:	7f 49                	jg     401a8d <save_char+0x56>
  401a44:	8d 14 40             	lea    (%rax,%rax,2),%edx
  401a47:	89 f9                	mov    %edi,%ecx
  401a49:	c0 e9 04             	shr    $0x4,%cl
  401a4c:	83 e1 0f             	and    $0xf,%ecx
  401a4f:	0f b6 b1 30 36 40 00 	movzbl 0x403630(%rcx),%esi
  401a56:	48 63 ca             	movslq %edx,%rcx
  401a59:	40 88 b1 40 55 60 00 	mov    %sil,0x605540(%rcx)
  401a60:	8d 4a 01             	lea    0x1(%rdx),%ecx
  401a63:	83 e7 0f             	and    $0xf,%edi
  401a66:	0f b6 b7 30 36 40 00 	movzbl 0x403630(%rdi),%esi
  401a6d:	48 63 c9             	movslq %ecx,%rcx
  401a70:	40 88 b1 40 55 60 00 	mov    %sil,0x605540(%rcx)
  401a77:	83 c2 02             	add    $0x2,%edx
  401a7a:	48 63 d2             	movslq %edx,%rdx
  401a7d:	c6 82 40 55 60 00 20 	movb   $0x20,0x605540(%rdx)
  401a84:	83 c0 01             	add    $0x1,%eax
  401a87:	89 05 b7 46 20 00    	mov    %eax,0x2046b7(%rip)        # 606144 <gets_cnt>
  401a8d:	f3 c3                	repz retq 

0000000000401a8f <save_term>:
  401a8f:	8b 05 af 46 20 00    	mov    0x2046af(%rip),%eax        # 606144 <gets_cnt>
  401a95:	8d 04 40             	lea    (%rax,%rax,2),%eax
  401a98:	48 98                	cltq   
  401a9a:	c6 80 40 55 60 00 00 	movb   $0x0,0x605540(%rax)
  401aa1:	c3                   	retq   

0000000000401aa2 <check_fail>:
  401aa2:	48 83 ec 08          	sub    $0x8,%rsp
  401aa6:	0f be 15 9b 46 20 00 	movsbl 0x20469b(%rip),%edx        # 606148 <target_prefix>
  401aad:	41 b8 40 55 60 00    	mov    $0x605540,%r8d
  401ab3:	8b 0d 5f 3a 20 00    	mov    0x203a5f(%rip),%ecx        # 605518 <check_level>
  401ab9:	be 2b 33 40 00       	mov    $0x40332b,%esi
  401abe:	bf 01 00 00 00       	mov    $0x1,%edi
  401ac3:	b8 00 00 00 00       	mov    $0x0,%eax
  401ac8:	e8 53 f3 ff ff       	callq  400e20 <__printf_chk@plt>
  401acd:	bf 01 00 00 00       	mov    $0x1,%edi
  401ad2:	e8 99 f3 ff ff       	callq  400e70 <exit@plt>

0000000000401ad7 <Gets>:
  401ad7:	41 54                	push   %r12
  401ad9:	55                   	push   %rbp
  401ada:	53                   	push   %rbx
  401adb:	49 89 fc             	mov    %rdi,%r12
  401ade:	c7 05 5c 46 20 00 00 	movl   $0x0,0x20465c(%rip)        # 606144 <gets_cnt>
  401ae5:	00 00 00 
  401ae8:	48 89 fb             	mov    %rdi,%rbx
  401aeb:	eb 11                	jmp    401afe <Gets+0x27>
  401aed:	48 8d 6b 01          	lea    0x1(%rbx),%rbp
  401af1:	88 03                	mov    %al,(%rbx)
  401af3:	0f b6 f8             	movzbl %al,%edi
  401af6:	e8 3c ff ff ff       	callq  401a37 <save_char>
  401afb:	48 89 eb             	mov    %rbp,%rbx
  401afe:	48 8b 3d 0b 3a 20 00 	mov    0x203a0b(%rip),%rdi        # 605510 <infile>
  401b05:	e8 e6 f2 ff ff       	callq  400df0 <_IO_getc@plt>
  401b0a:	83 f8 ff             	cmp    $0xffffffff,%eax
  401b0d:	74 05                	je     401b14 <Gets+0x3d>
  401b0f:	83 f8 0a             	cmp    $0xa,%eax
  401b12:	75 d9                	jne    401aed <Gets+0x16>
  401b14:	c6 03 00             	movb   $0x0,(%rbx)
  401b17:	b8 00 00 00 00       	mov    $0x0,%eax
  401b1c:	e8 6e ff ff ff       	callq  401a8f <save_term>
  401b21:	4c 89 e0             	mov    %r12,%rax
  401b24:	5b                   	pop    %rbx
  401b25:	5d                   	pop    %rbp
  401b26:	41 5c                	pop    %r12
  401b28:	c3                   	retq   

0000000000401b29 <notify_server>:
  401b29:	53                   	push   %rbx
  401b2a:	48 81 ec 10 40 00 00 	sub    $0x4010,%rsp
  401b31:	64 48 8b 04 25 28 00 	mov    %fs:0x28,%rax
  401b38:	00 00 
  401b3a:	48 89 84 24 08 40 00 	mov    %rax,0x4008(%rsp)
  401b41:	00 
  401b42:	31 c0                	xor    %eax,%eax
  401b44:	83 3d dd 39 20 00 00 	cmpl   $0x0,0x2039dd(%rip)        # 605528 <is_checker>
  401b4b:	0f 85 aa 01 00 00    	jne    401cfb <notify_server+0x1d2>
  401b51:	89 fb                	mov    %edi,%ebx
  401b53:	8b 05 eb 45 20 00    	mov    0x2045eb(%rip),%eax        # 606144 <gets_cnt>
  401b59:	83 c0 64             	add    $0x64,%eax
  401b5c:	3d 00 20 00 00       	cmp    $0x2000,%eax
  401b61:	7e 1e                	jle    401b81 <notify_server+0x58>
  401b63:	be 60 34 40 00       	mov    $0x403460,%esi
  401b68:	bf 01 00 00 00       	mov    $0x1,%edi
  401b6d:	b8 00 00 00 00       	mov    $0x0,%eax
  401b72:	e8 a9 f2 ff ff       	callq  400e20 <__printf_chk@plt>
  401b77:	bf 01 00 00 00       	mov    $0x1,%edi
  401b7c:	e8 ef f2 ff ff       	callq  400e70 <exit@plt>
  401b81:	0f be 05 c0 45 20 00 	movsbl 0x2045c0(%rip),%eax        # 606148 <target_prefix>
  401b88:	83 3d 19 39 20 00 00 	cmpl   $0x0,0x203919(%rip)        # 6054a8 <notify>
  401b8f:	74 08                	je     401b99 <notify_server+0x70>
  401b91:	8b 15 89 39 20 00    	mov    0x203989(%rip),%edx        # 605520 <authkey>
  401b97:	eb 05                	jmp    401b9e <notify_server+0x75>
  401b99:	ba ff ff ff ff       	mov    $0xffffffff,%edx
  401b9e:	85 db                	test   %ebx,%ebx
  401ba0:	74 08                	je     401baa <notify_server+0x81>
  401ba2:	41 b9 41 33 40 00    	mov    $0x403341,%r9d
  401ba8:	eb 06                	jmp    401bb0 <notify_server+0x87>
  401baa:	41 b9 46 33 40 00    	mov    $0x403346,%r9d
  401bb0:	68 40 55 60 00       	pushq  $0x605540
  401bb5:	56                   	push   %rsi
  401bb6:	50                   	push   %rax
  401bb7:	52                   	push   %rdx
  401bb8:	44 8b 05 a9 35 20 00 	mov    0x2035a9(%rip),%r8d        # 605168 <target_id>
  401bbf:	b9 4b 33 40 00       	mov    $0x40334b,%ecx
  401bc4:	ba 00 20 00 00       	mov    $0x2000,%edx
  401bc9:	be 01 00 00 00       	mov    $0x1,%esi
  401bce:	48 8d 7c 24 20       	lea    0x20(%rsp),%rdi
  401bd3:	b8 00 00 00 00       	mov    $0x0,%eax
  401bd8:	e8 c3 f2 ff ff       	callq  400ea0 <__sprintf_chk@plt>
  401bdd:	48 83 c4 20          	add    $0x20,%rsp
  401be1:	83 3d c0 38 20 00 00 	cmpl   $0x0,0x2038c0(%rip)        # 6054a8 <notify>
  401be8:	0f 84 81 00 00 00    	je     401c6f <notify_server+0x146>
  401bee:	4c 8d 8c 24 00 20 00 	lea    0x2000(%rsp),%r9
  401bf5:	00 
  401bf6:	41 b8 00 00 00 00    	mov    $0x0,%r8d
  401bfc:	48 89 e1             	mov    %rsp,%rcx
  401bff:	48 8b 15 6a 35 20 00 	mov    0x20356a(%rip),%rdx        # 605170 <lab>
  401c06:	48 8b 35 6b 35 20 00 	mov    0x20356b(%rip),%rsi        # 605178 <course>
  401c0d:	48 8b 3d 4c 35 20 00 	mov    0x20354c(%rip),%rdi        # 605160 <user_id>
  401c14:	e8 0e 11 00 00       	callq  402d27 <driver_post>
  401c19:	85 c0                	test   %eax,%eax
  401c1b:	79 26                	jns    401c43 <notify_server+0x11a>
  401c1d:	48 8d 94 24 00 20 00 	lea    0x2000(%rsp),%rdx
  401c24:	00 
  401c25:	be 67 33 40 00       	mov    $0x403367,%esi
  401c2a:	bf 01 00 00 00       	mov    $0x1,%edi
  401c2f:	b8 00 00 00 00       	mov    $0x0,%eax
  401c34:	e8 e7 f1 ff ff       	callq  400e20 <__printf_chk@plt>
  401c39:	bf 01 00 00 00       	mov    $0x1,%edi
  401c3e:	e8 2d f2 ff ff       	callq  400e70 <exit@plt>
  401c43:	85 db                	test   %ebx,%ebx
  401c45:	74 19                	je     401c60 <notify_server+0x137>
  401c47:	bf 90 34 40 00       	mov    $0x403490,%edi
  401c4c:	e8 9f f0 ff ff       	callq  400cf0 <puts@plt>
  401c51:	bf 73 33 40 00       	mov    $0x403373,%edi
  401c56:	e8 95 f0 ff ff       	callq  400cf0 <puts@plt>
  401c5b:	e9 9b 00 00 00       	jmpq   401cfb <notify_server+0x1d2>
  401c60:	bf 7d 33 40 00       	mov    $0x40337d,%edi
  401c65:	e8 86 f0 ff ff       	callq  400cf0 <puts@plt>
  401c6a:	e9 8c 00 00 00       	jmpq   401cfb <notify_server+0x1d2>
  401c6f:	85 db                	test   %ebx,%ebx
  401c71:	74 07                	je     401c7a <notify_server+0x151>
  401c73:	ba 41 33 40 00       	mov    $0x403341,%edx
  401c78:	eb 05                	jmp    401c7f <notify_server+0x156>
  401c7a:	ba 46 33 40 00       	mov    $0x403346,%edx
  401c7f:	be c8 34 40 00       	mov    $0x4034c8,%esi
  401c84:	bf 01 00 00 00       	mov    $0x1,%edi
  401c89:	b8 00 00 00 00       	mov    $0x0,%eax
  401c8e:	e8 8d f1 ff ff       	callq  400e20 <__printf_chk@plt>
  401c93:	48 8b 15 c6 34 20 00 	mov    0x2034c6(%rip),%rdx        # 605160 <user_id>
  401c9a:	be 84 33 40 00       	mov    $0x403384,%esi
  401c9f:	bf 01 00 00 00       	mov    $0x1,%edi
  401ca4:	b8 00 00 00 00       	mov    $0x0,%eax
  401ca9:	e8 72 f1 ff ff       	callq  400e20 <__printf_chk@plt>
  401cae:	48 8b 15 c3 34 20 00 	mov    0x2034c3(%rip),%rdx        # 605178 <course>
  401cb5:	be 91 33 40 00       	mov    $0x403391,%esi
  401cba:	bf 01 00 00 00       	mov    $0x1,%edi
  401cbf:	b8 00 00 00 00       	mov    $0x0,%eax
  401cc4:	e8 57 f1 ff ff       	callq  400e20 <__printf_chk@plt>
  401cc9:	48 8b 15 a0 34 20 00 	mov    0x2034a0(%rip),%rdx        # 605170 <lab>
  401cd0:	be 9d 33 40 00       	mov    $0x40339d,%esi
  401cd5:	bf 01 00 00 00       	mov    $0x1,%edi
  401cda:	b8 00 00 00 00       	mov    $0x0,%eax
  401cdf:	e8 3c f1 ff ff       	callq  400e20 <__printf_chk@plt>
  401ce4:	48 89 e2             	mov    %rsp,%rdx
  401ce7:	be a6 33 40 00       	mov    $0x4033a6,%esi
  401cec:	bf 01 00 00 00       	mov    $0x1,%edi
  401cf1:	b8 00 00 00 00       	mov    $0x0,%eax
  401cf6:	e8 25 f1 ff ff       	callq  400e20 <__printf_chk@plt>
  401cfb:	48 8b 84 24 08 40 00 	mov    0x4008(%rsp),%rax
  401d02:	00 
  401d03:	64 48 33 04 25 28 00 	xor    %fs:0x28,%rax
  401d0a:	00 00 
  401d0c:	74 05                	je     401d13 <notify_server+0x1ea>
  401d0e:	e8 fd ef ff ff       	callq  400d10 <__stack_chk_fail@plt>
  401d13:	48 81 c4 10 40 00 00 	add    $0x4010,%rsp
  401d1a:	5b                   	pop    %rbx
  401d1b:	c3                   	retq   

0000000000401d1c <validate>:
  401d1c:	53                   	push   %rbx
  401d1d:	89 fb                	mov    %edi,%ebx
  401d1f:	83 3d 02 38 20 00 00 	cmpl   $0x0,0x203802(%rip)        # 605528 <is_checker>
  401d26:	74 6b                	je     401d93 <validate+0x77>
  401d28:	39 3d ee 37 20 00    	cmp    %edi,0x2037ee(%rip)        # 60551c <vlevel>
  401d2e:	74 14                	je     401d44 <validate+0x28>
  401d30:	bf b2 33 40 00       	mov    $0x4033b2,%edi
  401d35:	e8 b6 ef ff ff       	callq  400cf0 <puts@plt>
  401d3a:	b8 00 00 00 00       	mov    $0x0,%eax
  401d3f:	e8 5e fd ff ff       	callq  401aa2 <check_fail>
  401d44:	8b 15 ce 37 20 00    	mov    0x2037ce(%rip),%edx        # 605518 <check_level>
  401d4a:	39 d7                	cmp    %edx,%edi
  401d4c:	74 20                	je     401d6e <validate+0x52>
  401d4e:	89 f9                	mov    %edi,%ecx
  401d50:	be f0 34 40 00       	mov    $0x4034f0,%esi
  401d55:	bf 01 00 00 00       	mov    $0x1,%edi
  401d5a:	b8 00 00 00 00       	mov    $0x0,%eax
  401d5f:	e8 bc f0 ff ff       	callq  400e20 <__printf_chk@plt>
  401d64:	b8 00 00 00 00       	mov    $0x0,%eax
  401d69:	e8 34 fd ff ff       	callq  401aa2 <check_fail>
  401d6e:	0f be 15 d3 43 20 00 	movsbl 0x2043d3(%rip),%edx        # 606148 <target_prefix>
  401d75:	41 b8 40 55 60 00    	mov    $0x605540,%r8d
  401d7b:	89 f9                	mov    %edi,%ecx
  401d7d:	be d0 33 40 00       	mov    $0x4033d0,%esi
  401d82:	bf 01 00 00 00       	mov    $0x1,%edi
  401d87:	b8 00 00 00 00       	mov    $0x0,%eax
  401d8c:	e8 8f f0 ff ff       	callq  400e20 <__printf_chk@plt>
  401d91:	eb 49                	jmp    401ddc <validate+0xc0>
  401d93:	3b 3d 83 37 20 00    	cmp    0x203783(%rip),%edi        # 60551c <vlevel>
  401d99:	74 18                	je     401db3 <validate+0x97>
  401d9b:	bf b2 33 40 00       	mov    $0x4033b2,%edi
  401da0:	e8 4b ef ff ff       	callq  400cf0 <puts@plt>
  401da5:	89 de                	mov    %ebx,%esi
  401da7:	bf 00 00 00 00       	mov    $0x0,%edi
  401dac:	e8 78 fd ff ff       	callq  401b29 <notify_server>
  401db1:	eb 29                	jmp    401ddc <validate+0xc0>
  401db3:	0f be 0d 8e 43 20 00 	movsbl 0x20438e(%rip),%ecx        # 606148 <target_prefix>
  401dba:	89 fa                	mov    %edi,%edx
  401dbc:	be 18 35 40 00       	mov    $0x403518,%esi
  401dc1:	bf 01 00 00 00       	mov    $0x1,%edi
  401dc6:	b8 00 00 00 00       	mov    $0x0,%eax
  401dcb:	e8 50 f0 ff ff       	callq  400e20 <__printf_chk@plt>
  401dd0:	89 de                	mov    %ebx,%esi
  401dd2:	bf 01 00 00 00       	mov    $0x1,%edi
  401dd7:	e8 4d fd ff ff       	callq  401b29 <notify_server>
  401ddc:	5b                   	pop    %rbx
  401ddd:	c3                   	retq   

0000000000401dde <fail>:
  401dde:	48 83 ec 08          	sub    $0x8,%rsp
  401de2:	83 3d 3f 37 20 00 00 	cmpl   $0x0,0x20373f(%rip)        # 605528 <is_checker>
  401de9:	74 0a                	je     401df5 <fail+0x17>
  401deb:	b8 00 00 00 00       	mov    $0x0,%eax
  401df0:	e8 ad fc ff ff       	callq  401aa2 <check_fail>
  401df5:	89 fe                	mov    %edi,%esi
  401df7:	bf 00 00 00 00       	mov    $0x0,%edi
  401dfc:	e8 28 fd ff ff       	callq  401b29 <notify_server>
  401e01:	48 83 c4 08          	add    $0x8,%rsp
  401e05:	c3                   	retq   

0000000000401e06 <bushandler>:
  401e06:	48 83 ec 08          	sub    $0x8,%rsp
  401e0a:	83 3d 17 37 20 00 00 	cmpl   $0x0,0x203717(%rip)        # 605528 <is_checker>
  401e11:	74 14                	je     401e27 <bushandler+0x21>
  401e13:	bf e5 33 40 00       	mov    $0x4033e5,%edi
  401e18:	e8 d3 ee ff ff       	callq  400cf0 <puts@plt>
  401e1d:	b8 00 00 00 00       	mov    $0x0,%eax
  401e22:	e8 7b fc ff ff       	callq  401aa2 <check_fail>
  401e27:	bf 50 35 40 00       	mov    $0x403550,%edi
  401e2c:	e8 bf ee ff ff       	callq  400cf0 <puts@plt>
  401e31:	bf ef 33 40 00       	mov    $0x4033ef,%edi
  401e36:	e8 b5 ee ff ff       	callq  400cf0 <puts@plt>
  401e3b:	be 00 00 00 00       	mov    $0x0,%esi
  401e40:	bf 00 00 00 00       	mov    $0x0,%edi
  401e45:	e8 df fc ff ff       	callq  401b29 <notify_server>
  401e4a:	bf 01 00 00 00       	mov    $0x1,%edi
  401e4f:	e8 1c f0 ff ff       	callq  400e70 <exit@plt>

0000000000401e54 <seghandler>:
  401e54:	48 83 ec 08          	sub    $0x8,%rsp
  401e58:	83 3d c9 36 20 00 00 	cmpl   $0x0,0x2036c9(%rip)        # 605528 <is_checker>
  401e5f:	74 14                	je     401e75 <seghandler+0x21>
  401e61:	bf 05 34 40 00       	mov    $0x403405,%edi
  401e66:	e8 85 ee ff ff       	callq  400cf0 <puts@plt>
  401e6b:	b8 00 00 00 00       	mov    $0x0,%eax
  401e70:	e8 2d fc ff ff       	callq  401aa2 <check_fail>
  401e75:	bf 70 35 40 00       	mov    $0x403570,%edi
  401e7a:	e8 71 ee ff ff       	callq  400cf0 <puts@plt>
  401e7f:	bf ef 33 40 00       	mov    $0x4033ef,%edi
  401e84:	e8 67 ee ff ff       	callq  400cf0 <puts@plt>
  401e89:	be 00 00 00 00       	mov    $0x0,%esi
  401e8e:	bf 00 00 00 00       	mov    $0x0,%edi
  401e93:	e8 91 fc ff ff       	callq  401b29 <notify_server>
  401e98:	bf 01 00 00 00       	mov    $0x1,%edi
  401e9d:	e8 ce ef ff ff       	callq  400e70 <exit@plt>

0000000000401ea2 <illegalhandler>:
  401ea2:	48 83 ec 08          	sub    $0x8,%rsp
  401ea6:	83 3d 7b 36 20 00 00 	cmpl   $0x0,0x20367b(%rip)        # 605528 <is_checker>
  401ead:	74 14                	je     401ec3 <illegalhandler+0x21>
  401eaf:	bf 18 34 40 00       	mov    $0x403418,%edi
  401eb4:	e8 37 ee ff ff       	callq  400cf0 <puts@plt>
  401eb9:	b8 00 00 00 00       	mov    $0x0,%eax
  401ebe:	e8 df fb ff ff       	callq  401aa2 <check_fail>
  401ec3:	bf 98 35 40 00       	mov    $0x403598,%edi
  401ec8:	e8 23 ee ff ff       	callq  400cf0 <puts@plt>
  401ecd:	bf ef 33 40 00       	mov    $0x4033ef,%edi
  401ed2:	e8 19 ee ff ff       	callq  400cf0 <puts@plt>
  401ed7:	be 00 00 00 00       	mov    $0x0,%esi
  401edc:	bf 00 00 00 00       	mov    $0x0,%edi
  401ee1:	e8 43 fc ff ff       	callq  401b29 <notify_server>
  401ee6:	bf 01 00 00 00       	mov    $0x1,%edi
  401eeb:	e8 80 ef ff ff       	callq  400e70 <exit@plt>

0000000000401ef0 <sigalrmhandler>:
  401ef0:	48 83 ec 08          	sub    $0x8,%rsp
  401ef4:	83 3d 2d 36 20 00 00 	cmpl   $0x0,0x20362d(%rip)        # 605528 <is_checker>
  401efb:	74 14                	je     401f11 <sigalrmhandler+0x21>
  401efd:	bf 2c 34 40 00       	mov    $0x40342c,%edi
  401f02:	e8 e9 ed ff ff       	callq  400cf0 <puts@plt>
  401f07:	b8 00 00 00 00       	mov    $0x0,%eax
  401f0c:	e8 91 fb ff ff       	callq  401aa2 <check_fail>
  401f11:	ba 05 00 00 00       	mov    $0x5,%edx
  401f16:	be c8 35 40 00       	mov    $0x4035c8,%esi
  401f1b:	bf 01 00 00 00       	mov    $0x1,%edi
  401f20:	b8 00 00 00 00       	mov    $0x0,%eax
  401f25:	e8 f6 ee ff ff       	callq  400e20 <__printf_chk@plt>
  401f2a:	be 00 00 00 00       	mov    $0x0,%esi
  401f2f:	bf 00 00 00 00       	mov    $0x0,%edi
  401f34:	e8 f0 fb ff ff       	callq  401b29 <notify_server>
  401f39:	bf 01 00 00 00       	mov    $0x1,%edi
  401f3e:	e8 2d ef ff ff       	callq  400e70 <exit@plt>

0000000000401f43 <launch>:
  401f43:	55                   	push   %rbp
  401f44:	48 89 e5             	mov    %rsp,%rbp
  401f47:	48 83 ec 10          	sub    $0x10,%rsp
  401f4b:	48 89 fa             	mov    %rdi,%rdx
  401f4e:	64 48 8b 04 25 28 00 	mov    %fs:0x28,%rax
  401f55:	00 00 
  401f57:	48 89 45 f8          	mov    %rax,-0x8(%rbp)
  401f5b:	31 c0                	xor    %eax,%eax
  401f5d:	48 8d 47 1e          	lea    0x1e(%rdi),%rax
  401f61:	48 83 e0 f0          	and    $0xfffffffffffffff0,%rax
  401f65:	48 29 c4             	sub    %rax,%rsp
  401f68:	48 8d 7c 24 0f       	lea    0xf(%rsp),%rdi
  401f6d:	48 83 e7 f0          	and    $0xfffffffffffffff0,%rdi
  401f71:	be f4 00 00 00       	mov    $0xf4,%esi
  401f76:	e8 b5 ed ff ff       	callq  400d30 <memset@plt>
  401f7b:	48 8b 05 3e 35 20 00 	mov    0x20353e(%rip),%rax        # 6054c0 <stdin@@GLIBC_2.2.5>
  401f82:	48 39 05 87 35 20 00 	cmp    %rax,0x203587(%rip)        # 605510 <infile>
  401f89:	75 14                	jne    401f9f <launch+0x5c>
  401f8b:	be 34 34 40 00       	mov    $0x403434,%esi
  401f90:	bf 01 00 00 00       	mov    $0x1,%edi
  401f95:	b8 00 00 00 00       	mov    $0x0,%eax
  401f9a:	e8 81 ee ff ff       	callq  400e20 <__printf_chk@plt>
  401f9f:	c7 05 73 35 20 00 00 	movl   $0x0,0x203573(%rip)        # 60551c <vlevel>
  401fa6:	00 00 00 
  401fa9:	b8 00 00 00 00       	mov    $0x0,%eax
  401fae:	e8 5b fa ff ff       	callq  401a0e <test>
  401fb3:	83 3d 6e 35 20 00 00 	cmpl   $0x0,0x20356e(%rip)        # 605528 <is_checker>
  401fba:	74 14                	je     401fd0 <launch+0x8d>
  401fbc:	bf 41 34 40 00       	mov    $0x403441,%edi
  401fc1:	e8 2a ed ff ff       	callq  400cf0 <puts@plt>
  401fc6:	b8 00 00 00 00       	mov    $0x0,%eax
  401fcb:	e8 d2 fa ff ff       	callq  401aa2 <check_fail>
  401fd0:	bf 4c 34 40 00       	mov    $0x40344c,%edi
  401fd5:	e8 16 ed ff ff       	callq  400cf0 <puts@plt>
  401fda:	48 8b 45 f8          	mov    -0x8(%rbp),%rax
  401fde:	64 48 33 04 25 28 00 	xor    %fs:0x28,%rax
  401fe5:	00 00 
  401fe7:	74 05                	je     401fee <launch+0xab>
  401fe9:	e8 22 ed ff ff       	callq  400d10 <__stack_chk_fail@plt>
  401fee:	c9                   	leaveq 
  401fef:	c3                   	retq   

0000000000401ff0 <stable_launch>:
  401ff0:	53                   	push   %rbx
  401ff1:	48 89 3d 10 35 20 00 	mov    %rdi,0x203510(%rip)        # 605508 <global_offset>
  401ff8:	41 b9 00 00 00 00    	mov    $0x0,%r9d
  401ffe:	41 b8 00 00 00 00    	mov    $0x0,%r8d
  402004:	b9 32 01 00 00       	mov    $0x132,%ecx
  402009:	ba 07 00 00 00       	mov    $0x7,%edx
  40200e:	be 00 00 10 00       	mov    $0x100000,%esi
  402013:	bf 00 60 58 55       	mov    $0x55586000,%edi
  402018:	e8 03 ed ff ff       	callq  400d20 <mmap@plt>
  40201d:	48 89 c3             	mov    %rax,%rbx
  402020:	48 3d 00 60 58 55    	cmp    $0x55586000,%rax
  402026:	74 37                	je     40205f <stable_launch+0x6f>
  402028:	be 00 00 10 00       	mov    $0x100000,%esi
  40202d:	48 89 c7             	mov    %rax,%rdi
  402030:	e8 db ed ff ff       	callq  400e10 <munmap@plt>
  402035:	b9 00 60 58 55       	mov    $0x55586000,%ecx
  40203a:	ba 00 36 40 00       	mov    $0x403600,%edx
  40203f:	be 01 00 00 00       	mov    $0x1,%esi
  402044:	48 8b 3d 95 34 20 00 	mov    0x203495(%rip),%rdi        # 6054e0 <stderr@@GLIBC_2.2.5>
  40204b:	b8 00 00 00 00       	mov    $0x0,%eax
  402050:	e8 3b ee ff ff       	callq  400e90 <__fprintf_chk@plt>
  402055:	bf 01 00 00 00       	mov    $0x1,%edi
  40205a:	e8 11 ee ff ff       	callq  400e70 <exit@plt>
  40205f:	48 8d 90 f8 ff 0f 00 	lea    0xffff8(%rax),%rdx
  402066:	48 89 15 e3 40 20 00 	mov    %rdx,0x2040e3(%rip)        # 606150 <stack_top>
  40206d:	48 89 e0             	mov    %rsp,%rax
  402070:	48 89 d4             	mov    %rdx,%rsp
  402073:	48 89 c2             	mov    %rax,%rdx
  402076:	48 89 15 83 34 20 00 	mov    %rdx,0x203483(%rip)        # 605500 <global_save_stack>
  40207d:	48 8b 3d 84 34 20 00 	mov    0x203484(%rip),%rdi        # 605508 <global_offset>
  402084:	e8 ba fe ff ff       	callq  401f43 <launch>
  402089:	48 8b 05 70 34 20 00 	mov    0x203470(%rip),%rax        # 605500 <global_save_stack>
  402090:	48 89 c4             	mov    %rax,%rsp
  402093:	be 00 00 10 00       	mov    $0x100000,%esi
  402098:	48 89 df             	mov    %rbx,%rdi
  40209b:	e8 70 ed ff ff       	callq  400e10 <munmap@plt>
  4020a0:	5b                   	pop    %rbx
  4020a1:	c3                   	retq   

00000000004020a2 <rio_readinitb>:
  4020a2:	89 37                	mov    %esi,(%rdi)
  4020a4:	c7 47 04 00 00 00 00 	movl   $0x0,0x4(%rdi)
  4020ab:	48 8d 47 10          	lea    0x10(%rdi),%rax
  4020af:	48 89 47 08          	mov    %rax,0x8(%rdi)
  4020b3:	c3                   	retq   

00000000004020b4 <sigalrm_handler>:
  4020b4:	48 83 ec 08          	sub    $0x8,%rsp
  4020b8:	b9 00 00 00 00       	mov    $0x0,%ecx
  4020bd:	ba 40 36 40 00       	mov    $0x403640,%edx
  4020c2:	be 01 00 00 00       	mov    $0x1,%esi
  4020c7:	48 8b 3d 12 34 20 00 	mov    0x203412(%rip),%rdi        # 6054e0 <stderr@@GLIBC_2.2.5>
  4020ce:	b8 00 00 00 00       	mov    $0x0,%eax
  4020d3:	e8 b8 ed ff ff       	callq  400e90 <__fprintf_chk@plt>
  4020d8:	bf 01 00 00 00       	mov    $0x1,%edi
  4020dd:	e8 8e ed ff ff       	callq  400e70 <exit@plt>

00000000004020e2 <rio_writen>:
  4020e2:	41 55                	push   %r13
  4020e4:	41 54                	push   %r12
  4020e6:	55                   	push   %rbp
  4020e7:	53                   	push   %rbx
  4020e8:	48 83 ec 08          	sub    $0x8,%rsp
  4020ec:	41 89 fc             	mov    %edi,%r12d
  4020ef:	48 89 f5             	mov    %rsi,%rbp
  4020f2:	49 89 d5             	mov    %rdx,%r13
  4020f5:	48 89 d3             	mov    %rdx,%rbx
  4020f8:	eb 28                	jmp    402122 <rio_writen+0x40>
  4020fa:	48 89 da             	mov    %rbx,%rdx
  4020fd:	48 89 ee             	mov    %rbp,%rsi
  402100:	44 89 e7             	mov    %r12d,%edi
  402103:	e8 f8 eb ff ff       	callq  400d00 <write@plt>
  402108:	48 85 c0             	test   %rax,%rax
  40210b:	7f 0f                	jg     40211c <rio_writen+0x3a>
  40210d:	e8 9e eb ff ff       	callq  400cb0 <__errno_location@plt>
  402112:	83 38 04             	cmpl   $0x4,(%rax)
  402115:	75 15                	jne    40212c <rio_writen+0x4a>
  402117:	b8 00 00 00 00       	mov    $0x0,%eax
  40211c:	48 29 c3             	sub    %rax,%rbx
  40211f:	48 01 c5             	add    %rax,%rbp
  402122:	48 85 db             	test   %rbx,%rbx
  402125:	75 d3                	jne    4020fa <rio_writen+0x18>
  402127:	4c 89 e8             	mov    %r13,%rax
  40212a:	eb 07                	jmp    402133 <rio_writen+0x51>
  40212c:	48 c7 c0 ff ff ff ff 	mov    $0xffffffffffffffff,%rax
  402133:	48 83 c4 08          	add    $0x8,%rsp
  402137:	5b                   	pop    %rbx
  402138:	5d                   	pop    %rbp
  402139:	41 5c                	pop    %r12
  40213b:	41 5d                	pop    %r13
  40213d:	c3                   	retq   

000000000040213e <rio_read>:
  40213e:	41 55                	push   %r13
  402140:	41 54                	push   %r12
  402142:	55                   	push   %rbp
  402143:	53                   	push   %rbx
  402144:	48 83 ec 08          	sub    $0x8,%rsp
  402148:	48 89 fb             	mov    %rdi,%rbx
  40214b:	49 89 f5             	mov    %rsi,%r13
  40214e:	49 89 d4             	mov    %rdx,%r12
  402151:	eb 2e                	jmp    402181 <rio_read+0x43>
  402153:	48 8d 6b 10          	lea    0x10(%rbx),%rbp
  402157:	8b 3b                	mov    (%rbx),%edi
  402159:	ba 00 20 00 00       	mov    $0x2000,%edx
  40215e:	48 89 ee             	mov    %rbp,%rsi
  402161:	e8 fa eb ff ff       	callq  400d60 <read@plt>
  402166:	89 43 04             	mov    %eax,0x4(%rbx)
  402169:	85 c0                	test   %eax,%eax
  40216b:	79 0c                	jns    402179 <rio_read+0x3b>
  40216d:	e8 3e eb ff ff       	callq  400cb0 <__errno_location@plt>
  402172:	83 38 04             	cmpl   $0x4,(%rax)
  402175:	74 0a                	je     402181 <rio_read+0x43>
  402177:	eb 37                	jmp    4021b0 <rio_read+0x72>
  402179:	85 c0                	test   %eax,%eax
  40217b:	74 3c                	je     4021b9 <rio_read+0x7b>
  40217d:	48 89 6b 08          	mov    %rbp,0x8(%rbx)
  402181:	8b 6b 04             	mov    0x4(%rbx),%ebp
  402184:	85 ed                	test   %ebp,%ebp
  402186:	7e cb                	jle    402153 <rio_read+0x15>
  402188:	89 e8                	mov    %ebp,%eax
  40218a:	49 39 c4             	cmp    %rax,%r12
  40218d:	77 03                	ja     402192 <rio_read+0x54>
  40218f:	44 89 e5             	mov    %r12d,%ebp
  402192:	4c 63 e5             	movslq %ebp,%r12
  402195:	48 8b 73 08          	mov    0x8(%rbx),%rsi
  402199:	4c 89 e2             	mov    %r12,%rdx
  40219c:	4c 89 ef             	mov    %r13,%rdi
  40219f:	e8 1c ec ff ff       	callq  400dc0 <memcpy@plt>
  4021a4:	4c 01 63 08          	add    %r12,0x8(%rbx)
  4021a8:	29 6b 04             	sub    %ebp,0x4(%rbx)
  4021ab:	4c 89 e0             	mov    %r12,%rax
  4021ae:	eb 0e                	jmp    4021be <rio_read+0x80>
  4021b0:	48 c7 c0 ff ff ff ff 	mov    $0xffffffffffffffff,%rax
  4021b7:	eb 05                	jmp    4021be <rio_read+0x80>
  4021b9:	b8 00 00 00 00       	mov    $0x0,%eax
  4021be:	48 83 c4 08          	add    $0x8,%rsp
  4021c2:	5b                   	pop    %rbx
  4021c3:	5d                   	pop    %rbp
  4021c4:	41 5c                	pop    %r12
  4021c6:	41 5d                	pop    %r13
  4021c8:	c3                   	retq   

00000000004021c9 <rio_readlineb>:
  4021c9:	41 55                	push   %r13
  4021cb:	41 54                	push   %r12
  4021cd:	55                   	push   %rbp
  4021ce:	53                   	push   %rbx
  4021cf:	48 83 ec 18          	sub    $0x18,%rsp
  4021d3:	49 89 fd             	mov    %rdi,%r13
  4021d6:	48 89 f5             	mov    %rsi,%rbp
  4021d9:	49 89 d4             	mov    %rdx,%r12
  4021dc:	64 48 8b 04 25 28 00 	mov    %fs:0x28,%rax
  4021e3:	00 00 
  4021e5:	48 89 44 24 08       	mov    %rax,0x8(%rsp)
  4021ea:	31 c0                	xor    %eax,%eax
  4021ec:	bb 01 00 00 00       	mov    $0x1,%ebx
  4021f1:	eb 3f                	jmp    402232 <rio_readlineb+0x69>
  4021f3:	ba 01 00 00 00       	mov    $0x1,%edx
  4021f8:	48 8d 74 24 07       	lea    0x7(%rsp),%rsi
  4021fd:	4c 89 ef             	mov    %r13,%rdi
  402200:	e8 39 ff ff ff       	callq  40213e <rio_read>
  402205:	83 f8 01             	cmp    $0x1,%eax
  402208:	75 15                	jne    40221f <rio_readlineb+0x56>
  40220a:	48 8d 45 01          	lea    0x1(%rbp),%rax
  40220e:	0f b6 54 24 07       	movzbl 0x7(%rsp),%edx
  402213:	88 55 00             	mov    %dl,0x0(%rbp)
  402216:	80 7c 24 07 0a       	cmpb   $0xa,0x7(%rsp)
  40221b:	75 0e                	jne    40222b <rio_readlineb+0x62>
  40221d:	eb 1a                	jmp    402239 <rio_readlineb+0x70>
  40221f:	85 c0                	test   %eax,%eax
  402221:	75 22                	jne    402245 <rio_readlineb+0x7c>
  402223:	48 83 fb 01          	cmp    $0x1,%rbx
  402227:	75 13                	jne    40223c <rio_readlineb+0x73>
  402229:	eb 23                	jmp    40224e <rio_readlineb+0x85>
  40222b:	48 83 c3 01          	add    $0x1,%rbx
  40222f:	48 89 c5             	mov    %rax,%rbp
  402232:	4c 39 e3             	cmp    %r12,%rbx
  402235:	72 bc                	jb     4021f3 <rio_readlineb+0x2a>
  402237:	eb 03                	jmp    40223c <rio_readlineb+0x73>
  402239:	48 89 c5             	mov    %rax,%rbp
  40223c:	c6 45 00 00          	movb   $0x0,0x0(%rbp)
  402240:	48 89 d8             	mov    %rbx,%rax
  402243:	eb 0e                	jmp    402253 <rio_readlineb+0x8a>
  402245:	48 c7 c0 ff ff ff ff 	mov    $0xffffffffffffffff,%rax
  40224c:	eb 05                	jmp    402253 <rio_readlineb+0x8a>
  40224e:	b8 00 00 00 00       	mov    $0x0,%eax
  402253:	48 8b 4c 24 08       	mov    0x8(%rsp),%rcx
  402258:	64 48 33 0c 25 28 00 	xor    %fs:0x28,%rcx
  40225f:	00 00 
  402261:	74 05                	je     402268 <rio_readlineb+0x9f>
  402263:	e8 a8 ea ff ff       	callq  400d10 <__stack_chk_fail@plt>
  402268:	48 83 c4 18          	add    $0x18,%rsp
  40226c:	5b                   	pop    %rbx
  40226d:	5d                   	pop    %rbp
  40226e:	41 5c                	pop    %r12
  402270:	41 5d                	pop    %r13
  402272:	c3                   	retq   

0000000000402273 <urlencode>:
  402273:	41 54                	push   %r12
  402275:	55                   	push   %rbp
  402276:	53                   	push   %rbx
  402277:	48 83 ec 10          	sub    $0x10,%rsp
  40227b:	48 89 fb             	mov    %rdi,%rbx
  40227e:	48 89 f5             	mov    %rsi,%rbp
  402281:	64 48 8b 04 25 28 00 	mov    %fs:0x28,%rax
  402288:	00 00 
  40228a:	48 89 44 24 08       	mov    %rax,0x8(%rsp)
  40228f:	31 c0                	xor    %eax,%eax
  402291:	48 c7 c1 ff ff ff ff 	mov    $0xffffffffffffffff,%rcx
  402298:	f2 ae                	repnz scas %es:(%rdi),%al
  40229a:	48 f7 d1             	not    %rcx
  40229d:	8d 41 ff             	lea    -0x1(%rcx),%eax
  4022a0:	e9 aa 00 00 00       	jmpq   40234f <urlencode+0xdc>
  4022a5:	44 0f b6 03          	movzbl (%rbx),%r8d
  4022a9:	41 80 f8 2a          	cmp    $0x2a,%r8b
  4022ad:	0f 94 c2             	sete   %dl
  4022b0:	41 80 f8 2d          	cmp    $0x2d,%r8b
  4022b4:	0f 94 c0             	sete   %al
  4022b7:	08 c2                	or     %al,%dl
  4022b9:	75 24                	jne    4022df <urlencode+0x6c>
  4022bb:	41 80 f8 2e          	cmp    $0x2e,%r8b
  4022bf:	74 1e                	je     4022df <urlencode+0x6c>
  4022c1:	41 80 f8 5f          	cmp    $0x5f,%r8b
  4022c5:	74 18                	je     4022df <urlencode+0x6c>
  4022c7:	41 8d 40 d0          	lea    -0x30(%r8),%eax
  4022cb:	3c 09                	cmp    $0x9,%al
  4022cd:	76 10                	jbe    4022df <urlencode+0x6c>
  4022cf:	41 8d 40 bf          	lea    -0x41(%r8),%eax
  4022d3:	3c 19                	cmp    $0x19,%al
  4022d5:	76 08                	jbe    4022df <urlencode+0x6c>
  4022d7:	41 8d 40 9f          	lea    -0x61(%r8),%eax
  4022db:	3c 19                	cmp    $0x19,%al
  4022dd:	77 0a                	ja     4022e9 <urlencode+0x76>
  4022df:	44 88 45 00          	mov    %r8b,0x0(%rbp)
  4022e3:	48 8d 6d 01          	lea    0x1(%rbp),%rbp
  4022e7:	eb 5f                	jmp    402348 <urlencode+0xd5>
  4022e9:	41 80 f8 20          	cmp    $0x20,%r8b
  4022ed:	75 0a                	jne    4022f9 <urlencode+0x86>
  4022ef:	c6 45 00 2b          	movb   $0x2b,0x0(%rbp)
  4022f3:	48 8d 6d 01          	lea    0x1(%rbp),%rbp
  4022f7:	eb 4f                	jmp    402348 <urlencode+0xd5>
  4022f9:	41 8d 40 e0          	lea    -0x20(%r8),%eax
  4022fd:	3c 5f                	cmp    $0x5f,%al
  4022ff:	0f 96 c2             	setbe  %dl
  402302:	41 80 f8 09          	cmp    $0x9,%r8b
  402306:	0f 94 c0             	sete   %al
  402309:	08 c2                	or     %al,%dl
  40230b:	74 50                	je     40235d <urlencode+0xea>
  40230d:	45 0f b6 c0          	movzbl %r8b,%r8d
  402311:	b9 f8 36 40 00       	mov    $0x4036f8,%ecx
  402316:	ba 08 00 00 00       	mov    $0x8,%edx
  40231b:	be 01 00 00 00       	mov    $0x1,%esi
  402320:	48 89 e7             	mov    %rsp,%rdi
  402323:	b8 00 00 00 00       	mov    $0x0,%eax
  402328:	e8 73 eb ff ff       	callq  400ea0 <__sprintf_chk@plt>
  40232d:	0f b6 04 24          	movzbl (%rsp),%eax
  402331:	88 45 00             	mov    %al,0x0(%rbp)
  402334:	0f b6 44 24 01       	movzbl 0x1(%rsp),%eax
  402339:	88 45 01             	mov    %al,0x1(%rbp)
  40233c:	0f b6 44 24 02       	movzbl 0x2(%rsp),%eax
  402341:	88 45 02             	mov    %al,0x2(%rbp)
  402344:	48 8d 6d 03          	lea    0x3(%rbp),%rbp
  402348:	48 83 c3 01          	add    $0x1,%rbx
  40234c:	44 89 e0             	mov    %r12d,%eax
  40234f:	44 8d 60 ff          	lea    -0x1(%rax),%r12d
  402353:	85 c0                	test   %eax,%eax
  402355:	0f 85 4a ff ff ff    	jne    4022a5 <urlencode+0x32>
  40235b:	eb 05                	jmp    402362 <urlencode+0xef>
  40235d:	b8 ff ff ff ff       	mov    $0xffffffff,%eax
  402362:	48 8b 74 24 08       	mov    0x8(%rsp),%rsi
  402367:	64 48 33 34 25 28 00 	xor    %fs:0x28,%rsi
  40236e:	00 00 
  402370:	74 05                	je     402377 <urlencode+0x104>
  402372:	e8 99 e9 ff ff       	callq  400d10 <__stack_chk_fail@plt>
  402377:	48 83 c4 10          	add    $0x10,%rsp
  40237b:	5b                   	pop    %rbx
  40237c:	5d                   	pop    %rbp
  40237d:	41 5c                	pop    %r12
  40237f:	c3                   	retq   

0000000000402380 <submitr>:
  402380:	41 57                	push   %r15
  402382:	41 56                	push   %r14
  402384:	41 55                	push   %r13
  402386:	41 54                	push   %r12
  402388:	55                   	push   %rbp
  402389:	53                   	push   %rbx
  40238a:	48 81 ec 58 a0 00 00 	sub    $0xa058,%rsp
  402391:	49 89 fd             	mov    %rdi,%r13
  402394:	89 74 24 0c          	mov    %esi,0xc(%rsp)
  402398:	48 89 14 24          	mov    %rdx,(%rsp)
  40239c:	49 89 ce             	mov    %rcx,%r14
  40239f:	4d 89 c7             	mov    %r8,%r15
  4023a2:	4d 89 cc             	mov    %r9,%r12
  4023a5:	48 8b 9c 24 90 a0 00 	mov    0xa090(%rsp),%rbx
  4023ac:	00 
  4023ad:	64 48 8b 04 25 28 00 	mov    %fs:0x28,%rax
  4023b4:	00 00 
  4023b6:	48 89 84 24 48 a0 00 	mov    %rax,0xa048(%rsp)
  4023bd:	00 
  4023be:	31 c0                	xor    %eax,%eax
  4023c0:	c7 44 24 1c 00 00 00 	movl   $0x0,0x1c(%rsp)
  4023c7:	00 
  4023c8:	ba 00 00 00 00       	mov    $0x0,%edx
  4023cd:	be 01 00 00 00       	mov    $0x1,%esi
  4023d2:	bf 02 00 00 00       	mov    $0x2,%edi
  4023d7:	e8 d4 ea ff ff       	callq  400eb0 <socket@plt>
  4023dc:	85 c0                	test   %eax,%eax
  4023de:	79 4e                	jns    40242e <submitr+0xae>
  4023e0:	48 b8 45 72 72 6f 72 	movabs $0x43203a726f727245,%rax
  4023e7:	3a 20 43 
  4023ea:	48 89 03             	mov    %rax,(%rbx)
  4023ed:	48 b8 6c 69 65 6e 74 	movabs $0x6e7520746e65696c,%rax
  4023f4:	20 75 6e 
  4023f7:	48 89 43 08          	mov    %rax,0x8(%rbx)
  4023fb:	48 b8 61 62 6c 65 20 	movabs $0x206f7420656c6261,%rax
  402402:	74 6f 20 
  402405:	48 89 43 10          	mov    %rax,0x10(%rbx)
  402409:	48 b8 63 72 65 61 74 	movabs $0x7320657461657263,%rax
  402410:	65 20 73 
  402413:	48 89 43 18          	mov    %rax,0x18(%rbx)
  402417:	c7 43 20 6f 63 6b 65 	movl   $0x656b636f,0x20(%rbx)
  40241e:	66 c7 43 24 74 00    	movw   $0x74,0x24(%rbx)
  402424:	b8 ff ff ff ff       	mov    $0xffffffff,%eax
  402429:	e9 b3 06 00 00       	jmpq   402ae1 <submitr+0x761>
  40242e:	89 c5                	mov    %eax,%ebp
  402430:	4c 89 ef             	mov    %r13,%rdi
  402433:	e8 58 e9 ff ff       	callq  400d90 <gethostbyname@plt>
  402438:	48 85 c0             	test   %rax,%rax
  40243b:	75 75                	jne    4024b2 <submitr+0x132>
  40243d:	48 b8 45 72 72 6f 72 	movabs $0x44203a726f727245,%rax
  402444:	3a 20 44 
  402447:	48 89 03             	mov    %rax,(%rbx)
  40244a:	48 b8 4e 53 20 69 73 	movabs $0x6e7520736920534e,%rax
  402451:	20 75 6e 
  402454:	48 89 43 08          	mov    %rax,0x8(%rbx)
  402458:	48 b8 61 62 6c 65 20 	movabs $0x206f7420656c6261,%rax
  40245f:	74 6f 20 
  402462:	48 89 43 10          	mov    %rax,0x10(%rbx)
  402466:	48 b8 72 65 73 6f 6c 	movabs $0x2065766c6f736572,%rax
  40246d:	76 65 20 
  402470:	48 89 43 18          	mov    %rax,0x18(%rbx)
  402474:	48 b8 41 75 74 6f 6c 	movabs $0x2062616c6f747541,%rax
  40247b:	61 62 20 
  40247e:	48 89 43 20          	mov    %rax,0x20(%rbx)
  402482:	48 b8 73 65 72 76 65 	movabs $0x6120726576726573,%rax
  402489:	72 20 61 
  40248c:	48 89 43 28          	mov    %rax,0x28(%rbx)
  402490:	c7 43 30 64 64 72 65 	movl   $0x65726464,0x30(%rbx)
  402497:	66 c7 43 34 73 73    	movw   $0x7373,0x34(%rbx)
  40249d:	c6 43 36 00          	movb   $0x0,0x36(%rbx)
  4024a1:	89 ef                	mov    %ebp,%edi
  4024a3:	e8 a8 e8 ff ff       	callq  400d50 <close@plt>
  4024a8:	b8 ff ff ff ff       	mov    $0xffffffff,%eax
  4024ad:	e9 2f 06 00 00       	jmpq   402ae1 <submitr+0x761>
  4024b2:	48 c7 44 24 20 00 00 	movq   $0x0,0x20(%rsp)
  4024b9:	00 00 
  4024bb:	48 c7 44 24 28 00 00 	movq   $0x0,0x28(%rsp)
  4024c2:	00 00 
  4024c4:	66 c7 44 24 20 02 00 	movw   $0x2,0x20(%rsp)
  4024cb:	48 63 50 14          	movslq 0x14(%rax),%rdx
  4024cf:	48 8b 40 18          	mov    0x18(%rax),%rax
  4024d3:	48 8b 30             	mov    (%rax),%rsi
  4024d6:	48 8d 7c 24 24       	lea    0x24(%rsp),%rdi
  4024db:	b9 0c 00 00 00       	mov    $0xc,%ecx
  4024e0:	e8 bb e8 ff ff       	callq  400da0 <__memmove_chk@plt>
  4024e5:	0f b7 44 24 0c       	movzwl 0xc(%rsp),%eax
  4024ea:	66 c1 c8 08          	ror    $0x8,%ax
  4024ee:	66 89 44 24 22       	mov    %ax,0x22(%rsp)
  4024f3:	ba 10 00 00 00       	mov    $0x10,%edx
  4024f8:	48 8d 74 24 20       	lea    0x20(%rsp),%rsi
  4024fd:	89 ef                	mov    %ebp,%edi
  4024ff:	e8 7c e9 ff ff       	callq  400e80 <connect@plt>
  402504:	85 c0                	test   %eax,%eax
  402506:	79 67                	jns    40256f <submitr+0x1ef>
  402508:	48 b8 45 72 72 6f 72 	movabs $0x55203a726f727245,%rax
  40250f:	3a 20 55 
  402512:	48 89 03             	mov    %rax,(%rbx)
  402515:	48 b8 6e 61 62 6c 65 	movabs $0x6f7420656c62616e,%rax
  40251c:	20 74 6f 
  40251f:	48 89 43 08          	mov    %rax,0x8(%rbx)
  402523:	48 b8 20 63 6f 6e 6e 	movabs $0x7463656e6e6f6320,%rax
  40252a:	65 63 74 
  40252d:	48 89 43 10          	mov    %rax,0x10(%rbx)
  402531:	48 b8 20 74 6f 20 74 	movabs $0x20656874206f7420,%rax
  402538:	68 65 20 
  40253b:	48 89 43 18          	mov    %rax,0x18(%rbx)
  40253f:	48 b8 41 75 74 6f 6c 	movabs $0x2062616c6f747541,%rax
  402546:	61 62 20 
  402549:	48 89 43 20          	mov    %rax,0x20(%rbx)
  40254d:	c7 43 28 73 65 72 76 	movl   $0x76726573,0x28(%rbx)
  402554:	66 c7 43 2c 65 72    	movw   $0x7265,0x2c(%rbx)
  40255a:	c6 43 2e 00          	movb   $0x0,0x2e(%rbx)
  40255e:	89 ef                	mov    %ebp,%edi
  402560:	e8 eb e7 ff ff       	callq  400d50 <close@plt>
  402565:	b8 ff ff ff ff       	mov    $0xffffffff,%eax
  40256a:	e9 72 05 00 00       	jmpq   402ae1 <submitr+0x761>
  40256f:	48 c7 c6 ff ff ff ff 	mov    $0xffffffffffffffff,%rsi
  402576:	b8 00 00 00 00       	mov    $0x0,%eax
  40257b:	48 89 f1             	mov    %rsi,%rcx
  40257e:	4c 89 e7             	mov    %r12,%rdi
  402581:	f2 ae                	repnz scas %es:(%rdi),%al
  402583:	48 f7 d1             	not    %rcx
  402586:	48 89 ca             	mov    %rcx,%rdx
  402589:	48 89 f1             	mov    %rsi,%rcx
  40258c:	48 8b 3c 24          	mov    (%rsp),%rdi
  402590:	f2 ae                	repnz scas %es:(%rdi),%al
  402592:	48 f7 d1             	not    %rcx
  402595:	49 89 c8             	mov    %rcx,%r8
  402598:	48 89 f1             	mov    %rsi,%rcx
  40259b:	4c 89 f7             	mov    %r14,%rdi
  40259e:	f2 ae                	repnz scas %es:(%rdi),%al
  4025a0:	48 f7 d1             	not    %rcx
  4025a3:	4d 8d 44 08 fe       	lea    -0x2(%r8,%rcx,1),%r8
  4025a8:	48 89 f1             	mov    %rsi,%rcx
  4025ab:	4c 89 ff             	mov    %r15,%rdi
  4025ae:	f2 ae                	repnz scas %es:(%rdi),%al
  4025b0:	48 89 c8             	mov    %rcx,%rax
  4025b3:	48 f7 d0             	not    %rax
  4025b6:	49 8d 4c 00 ff       	lea    -0x1(%r8,%rax,1),%rcx
  4025bb:	48 8d 44 52 fd       	lea    -0x3(%rdx,%rdx,2),%rax
  4025c0:	48 8d 84 01 80 00 00 	lea    0x80(%rcx,%rax,1),%rax
  4025c7:	00 
  4025c8:	48 3d 00 20 00 00    	cmp    $0x2000,%rax
  4025ce:	76 72                	jbe    402642 <submitr+0x2c2>
  4025d0:	48 b8 45 72 72 6f 72 	movabs $0x52203a726f727245,%rax
  4025d7:	3a 20 52 
  4025da:	48 89 03             	mov    %rax,(%rbx)
  4025dd:	48 b8 65 73 75 6c 74 	movabs $0x747320746c757365,%rax
  4025e4:	20 73 74 
  4025e7:	48 89 43 08          	mov    %rax,0x8(%rbx)
  4025eb:	48 b8 72 69 6e 67 20 	movabs $0x6f6f7420676e6972,%rax
  4025f2:	74 6f 6f 
  4025f5:	48 89 43 10          	mov    %rax,0x10(%rbx)
  4025f9:	48 b8 20 6c 61 72 67 	movabs $0x202e656772616c20,%rax
  402600:	65 2e 20 
  402603:	48 89 43 18          	mov    %rax,0x18(%rbx)
  402607:	48 b8 49 6e 63 72 65 	movabs $0x6573616572636e49,%rax
  40260e:	61 73 65 
  402611:	48 89 43 20          	mov    %rax,0x20(%rbx)
  402615:	48 b8 20 53 55 42 4d 	movabs $0x5254494d42555320,%rax
  40261c:	49 54 52 
  40261f:	48 89 43 28          	mov    %rax,0x28(%rbx)
  402623:	48 b8 5f 4d 41 58 42 	movabs $0x46554258414d5f,%rax
  40262a:	55 46 00 
  40262d:	48 89 43 30          	mov    %rax,0x30(%rbx)
  402631:	89 ef                	mov    %ebp,%edi
  402633:	e8 18 e7 ff ff       	callq  400d50 <close@plt>
  402638:	b8 ff ff ff ff       	mov    $0xffffffff,%eax
  40263d:	e9 9f 04 00 00       	jmpq   402ae1 <submitr+0x761>
  402642:	48 8d b4 24 40 40 00 	lea    0x4040(%rsp),%rsi
  402649:	00 
  40264a:	b9 00 04 00 00       	mov    $0x400,%ecx
  40264f:	b8 00 00 00 00       	mov    $0x0,%eax
  402654:	48 89 f7             	mov    %rsi,%rdi
  402657:	f3 48 ab             	rep stos %rax,%es:(%rdi)
  40265a:	4c 89 e7             	mov    %r12,%rdi
  40265d:	e8 11 fc ff ff       	callq  402273 <urlencode>
  402662:	85 c0                	test   %eax,%eax
  402664:	0f 89 8a 00 00 00    	jns    4026f4 <submitr+0x374>
  40266a:	48 b8 45 72 72 6f 72 	movabs $0x52203a726f727245,%rax
  402671:	3a 20 52 
  402674:	48 89 03             	mov    %rax,(%rbx)
  402677:	48 b8 65 73 75 6c 74 	movabs $0x747320746c757365,%rax
  40267e:	20 73 74 
  402681:	48 89 43 08          	mov    %rax,0x8(%rbx)
  402685:	48 b8 72 69 6e 67 20 	movabs $0x6e6f6320676e6972,%rax
  40268c:	63 6f 6e 
  40268f:	48 89 43 10          	mov    %rax,0x10(%rbx)
  402693:	48 b8 74 61 69 6e 73 	movabs $0x6e6120736e696174,%rax
  40269a:	20 61 6e 
  40269d:	48 89 43 18          	mov    %rax,0x18(%rbx)
  4026a1:	48 b8 20 69 6c 6c 65 	movabs $0x6c6167656c6c6920,%rax
  4026a8:	67 61 6c 
  4026ab:	48 89 43 20          	mov    %rax,0x20(%rbx)
  4026af:	48 b8 20 6f 72 20 75 	movabs $0x72706e7520726f20,%rax
  4026b6:	6e 70 72 
  4026b9:	48 89 43 28          	mov    %rax,0x28(%rbx)
  4026bd:	48 b8 69 6e 74 61 62 	movabs $0x20656c6261746e69,%rax
  4026c4:	6c 65 20 
  4026c7:	48 89 43 30          	mov    %rax,0x30(%rbx)
  4026cb:	48 b8 63 68 61 72 61 	movabs $0x6574636172616863,%rax
  4026d2:	63 74 65 
  4026d5:	48 89 43 38          	mov    %rax,0x38(%rbx)
  4026d9:	66 c7 43 40 72 2e    	movw   $0x2e72,0x40(%rbx)
  4026df:	c6 43 42 00          	movb   $0x0,0x42(%rbx)
  4026e3:	89 ef                	mov    %ebp,%edi
  4026e5:	e8 66 e6 ff ff       	callq  400d50 <close@plt>
  4026ea:	b8 ff ff ff ff       	mov    $0xffffffff,%eax
  4026ef:	e9 ed 03 00 00       	jmpq   402ae1 <submitr+0x761>
  4026f4:	4c 8d a4 24 40 20 00 	lea    0x2040(%rsp),%r12
  4026fb:	00 
  4026fc:	48 83 ec 08          	sub    $0x8,%rsp
  402700:	41 55                	push   %r13
  402702:	48 8d 84 24 50 40 00 	lea    0x4050(%rsp),%rax
  402709:	00 
  40270a:	50                   	push   %rax
  40270b:	41 56                	push   %r14
  40270d:	4d 89 f9             	mov    %r15,%r9
  402710:	4c 8b 44 24 20       	mov    0x20(%rsp),%r8
  402715:	b9 68 36 40 00       	mov    $0x403668,%ecx
  40271a:	ba 00 20 00 00       	mov    $0x2000,%edx
  40271f:	be 01 00 00 00       	mov    $0x1,%esi
  402724:	4c 89 e7             	mov    %r12,%rdi
  402727:	b8 00 00 00 00       	mov    $0x0,%eax
  40272c:	e8 6f e7 ff ff       	callq  400ea0 <__sprintf_chk@plt>
  402731:	b8 00 00 00 00       	mov    $0x0,%eax
  402736:	48 c7 c1 ff ff ff ff 	mov    $0xffffffffffffffff,%rcx
  40273d:	4c 89 e7             	mov    %r12,%rdi
  402740:	f2 ae                	repnz scas %es:(%rdi),%al
  402742:	48 f7 d1             	not    %rcx
  402745:	48 8d 51 ff          	lea    -0x1(%rcx),%rdx
  402749:	48 83 c4 20          	add    $0x20,%rsp
  40274d:	4c 89 e6             	mov    %r12,%rsi
  402750:	89 ef                	mov    %ebp,%edi
  402752:	e8 8b f9 ff ff       	callq  4020e2 <rio_writen>
  402757:	48 85 c0             	test   %rax,%rax
  40275a:	79 6b                	jns    4027c7 <submitr+0x447>
  40275c:	48 b8 45 72 72 6f 72 	movabs $0x43203a726f727245,%rax
  402763:	3a 20 43 
  402766:	48 89 03             	mov    %rax,(%rbx)
  402769:	48 b8 6c 69 65 6e 74 	movabs $0x6e7520746e65696c,%rax
  402770:	20 75 6e 
  402773:	48 89 43 08          	mov    %rax,0x8(%rbx)
  402777:	48 b8 61 62 6c 65 20 	movabs $0x206f7420656c6261,%rax
  40277e:	74 6f 20 
  402781:	48 89 43 10          	mov    %rax,0x10(%rbx)
  402785:	48 b8 77 72 69 74 65 	movabs $0x6f74206574697277,%rax
  40278c:	20 74 6f 
  40278f:	48 89 43 18          	mov    %rax,0x18(%rbx)
  402793:	48 b8 20 74 68 65 20 	movabs $0x7475412065687420,%rax
  40279a:	41 75 74 
  40279d:	48 89 43 20          	mov    %rax,0x20(%rbx)
  4027a1:	48 b8 6f 6c 61 62 20 	movabs $0x7265732062616c6f,%rax
  4027a8:	73 65 72 
  4027ab:	48 89 43 28          	mov    %rax,0x28(%rbx)
  4027af:	c7 43 30 76 65 72 00 	movl   $0x726576,0x30(%rbx)
  4027b6:	89 ef                	mov    %ebp,%edi
  4027b8:	e8 93 e5 ff ff       	callq  400d50 <close@plt>
  4027bd:	b8 ff ff ff ff       	mov    $0xffffffff,%eax
  4027c2:	e9 1a 03 00 00       	jmpq   402ae1 <submitr+0x761>
  4027c7:	89 ee                	mov    %ebp,%esi
  4027c9:	48 8d 7c 24 30       	lea    0x30(%rsp),%rdi
  4027ce:	e8 cf f8 ff ff       	callq  4020a2 <rio_readinitb>
  4027d3:	ba 00 20 00 00       	mov    $0x2000,%edx
  4027d8:	48 8d b4 24 40 20 00 	lea    0x2040(%rsp),%rsi
  4027df:	00 
  4027e0:	48 8d 7c 24 30       	lea    0x30(%rsp),%rdi
  4027e5:	e8 df f9 ff ff       	callq  4021c9 <rio_readlineb>
  4027ea:	48 85 c0             	test   %rax,%rax
  4027ed:	7f 7f                	jg     40286e <submitr+0x4ee>
  4027ef:	48 b8 45 72 72 6f 72 	movabs $0x43203a726f727245,%rax
  4027f6:	3a 20 43 
  4027f9:	48 89 03             	mov    %rax,(%rbx)
  4027fc:	48 b8 6c 69 65 6e 74 	movabs $0x6e7520746e65696c,%rax
  402803:	20 75 6e 
  402806:	48 89 43 08          	mov    %rax,0x8(%rbx)
  40280a:	48 b8 61 62 6c 65 20 	movabs $0x206f7420656c6261,%rax
  402811:	74 6f 20 
  402814:	48 89 43 10          	mov    %rax,0x10(%rbx)
  402818:	48 b8 72 65 61 64 20 	movabs $0x7269662064616572,%rax
  40281f:	66 69 72 
  402822:	48 89 43 18          	mov    %rax,0x18(%rbx)
  402826:	48 b8 73 74 20 68 65 	movabs $0x6564616568207473,%rax
  40282d:	61 64 65 
  402830:	48 89 43 20          	mov    %rax,0x20(%rbx)
  402834:	48 b8 72 20 66 72 6f 	movabs $0x41206d6f72662072,%rax
  40283b:	6d 20 41 
  40283e:	48 89 43 28          	mov    %rax,0x28(%rbx)
  402842:	48 b8 75 74 6f 6c 61 	movabs $0x732062616c6f7475,%rax
  402849:	62 20 73 
  40284c:	48 89 43 30          	mov    %rax,0x30(%rbx)
  402850:	c7 43 38 65 72 76 65 	movl   $0x65767265,0x38(%rbx)
  402857:	66 c7 43 3c 72 00    	movw   $0x72,0x3c(%rbx)
  40285d:	89 ef                	mov    %ebp,%edi
  40285f:	e8 ec e4 ff ff       	callq  400d50 <close@plt>
  402864:	b8 ff ff ff ff       	mov    $0xffffffff,%eax
  402869:	e9 73 02 00 00       	jmpq   402ae1 <submitr+0x761>
  40286e:	4c 8d 84 24 40 80 00 	lea    0x8040(%rsp),%r8
  402875:	00 
  402876:	48 8d 4c 24 1c       	lea    0x1c(%rsp),%rcx
  40287b:	48 8d 94 24 40 60 00 	lea    0x6040(%rsp),%rdx
  402882:	00 
  402883:	be ff 36 40 00       	mov    $0x4036ff,%esi
  402888:	48 8d bc 24 40 20 00 	lea    0x2040(%rsp),%rdi
  40288f:	00 
  402890:	b8 00 00 00 00       	mov    $0x0,%eax
  402895:	e8 66 e5 ff ff       	callq  400e00 <__isoc99_sscanf@plt>
  40289a:	e9 92 00 00 00       	jmpq   402931 <submitr+0x5b1>
  40289f:	ba 00 20 00 00       	mov    $0x2000,%edx
  4028a4:	48 8d b4 24 40 20 00 	lea    0x2040(%rsp),%rsi
  4028ab:	00 
  4028ac:	48 8d 7c 24 30       	lea    0x30(%rsp),%rdi
  4028b1:	e8 13 f9 ff ff       	callq  4021c9 <rio_readlineb>
  4028b6:	48 85 c0             	test   %rax,%rax
  4028b9:	7f 76                	jg     402931 <submitr+0x5b1>
  4028bb:	48 b8 45 72 72 6f 72 	movabs $0x43203a726f727245,%rax
  4028c2:	3a 20 43 
  4028c5:	48 89 03             	mov    %rax,(%rbx)
  4028c8:	48 b8 6c 69 65 6e 74 	movabs $0x6e7520746e65696c,%rax
  4028cf:	20 75 6e 
  4028d2:	48 89 43 08          	mov    %rax,0x8(%rbx)
  4028d6:	48 b8 61 62 6c 65 20 	movabs $0x206f7420656c6261,%rax
  4028dd:	74 6f 20 
  4028e0:	48 89 43 10          	mov    %rax,0x10(%rbx)
  4028e4:	48 b8 72 65 61 64 20 	movabs $0x6165682064616572,%rax
  4028eb:	68 65 61 
  4028ee:	48 89 43 18          	mov    %rax,0x18(%rbx)
  4028f2:	48 b8 64 65 72 73 20 	movabs $0x6f72662073726564,%rax
  4028f9:	66 72 6f 
  4028fc:	48 89 43 20          	mov    %rax,0x20(%rbx)
  402900:	48 b8 6d 20 41 75 74 	movabs $0x616c6f747541206d,%rax
  402907:	6f 6c 61 
  40290a:	48 89 43 28          	mov    %rax,0x28(%rbx)
  40290e:	48 b8 62 20 73 65 72 	movabs $0x7265767265732062,%rax
  402915:	76 65 72 
  402918:	48 89 43 30          	mov    %rax,0x30(%rbx)
  40291c:	c6 43 38 00          	movb   $0x0,0x38(%rbx)
  402920:	89 ef                	mov    %ebp,%edi
  402922:	e8 29 e4 ff ff       	callq  400d50 <close@plt>
  402927:	b8 ff ff ff ff       	mov    $0xffffffff,%eax
  40292c:	e9 b0 01 00 00       	jmpq   402ae1 <submitr+0x761>
  402931:	0f b6 94 24 40 20 00 	movzbl 0x2040(%rsp),%edx
  402938:	00 
  402939:	b8 0d 00 00 00       	mov    $0xd,%eax
  40293e:	29 d0                	sub    %edx,%eax
  402940:	75 1b                	jne    40295d <submitr+0x5dd>
  402942:	0f b6 94 24 41 20 00 	movzbl 0x2041(%rsp),%edx
  402949:	00 
  40294a:	b8 0a 00 00 00       	mov    $0xa,%eax
  40294f:	29 d0                	sub    %edx,%eax
  402951:	75 0a                	jne    40295d <submitr+0x5dd>
  402953:	0f b6 84 24 42 20 00 	movzbl 0x2042(%rsp),%eax
  40295a:	00 
  40295b:	f7 d8                	neg    %eax
  40295d:	85 c0                	test   %eax,%eax
  40295f:	0f 85 3a ff ff ff    	jne    40289f <submitr+0x51f>
  402965:	ba 00 20 00 00       	mov    $0x2000,%edx
  40296a:	48 8d b4 24 40 20 00 	lea    0x2040(%rsp),%rsi
  402971:	00 
  402972:	48 8d 7c 24 30       	lea    0x30(%rsp),%rdi
  402977:	e8 4d f8 ff ff       	callq  4021c9 <rio_readlineb>
  40297c:	48 85 c0             	test   %rax,%rax
  40297f:	0f 8f 80 00 00 00    	jg     402a05 <submitr+0x685>
  402985:	48 b8 45 72 72 6f 72 	movabs $0x43203a726f727245,%rax
  40298c:	3a 20 43 
  40298f:	48 89 03             	mov    %rax,(%rbx)
  402992:	48 b8 6c 69 65 6e 74 	movabs $0x6e7520746e65696c,%rax
  402999:	20 75 6e 
  40299c:	48 89 43 08          	mov    %rax,0x8(%rbx)
  4029a0:	48 b8 61 62 6c 65 20 	movabs $0x206f7420656c6261,%rax
  4029a7:	74 6f 20 
  4029aa:	48 89 43 10          	mov    %rax,0x10(%rbx)
  4029ae:	48 b8 72 65 61 64 20 	movabs $0x6174732064616572,%rax
  4029b5:	73 74 61 
  4029b8:	48 89 43 18          	mov    %rax,0x18(%rbx)
  4029bc:	48 b8 74 75 73 20 6d 	movabs $0x7373656d20737574,%rax
  4029c3:	65 73 73 
  4029c6:	48 89 43 20          	mov    %rax,0x20(%rbx)
  4029ca:	48 b8 61 67 65 20 66 	movabs $0x6d6f726620656761,%rax
  4029d1:	72 6f 6d 
  4029d4:	48 89 43 28          	mov    %rax,0x28(%rbx)
  4029d8:	48 b8 20 41 75 74 6f 	movabs $0x62616c6f74754120,%rax
  4029df:	6c 61 62 
  4029e2:	48 89 43 30          	mov    %rax,0x30(%rbx)
  4029e6:	48 b8 20 73 65 72 76 	movabs $0x72657672657320,%rax
  4029ed:	65 72 00 
  4029f0:	48 89 43 38          	mov    %rax,0x38(%rbx)
  4029f4:	89 ef                	mov    %ebp,%edi
  4029f6:	e8 55 e3 ff ff       	callq  400d50 <close@plt>
  4029fb:	b8 ff ff ff ff       	mov    $0xffffffff,%eax
  402a00:	e9 dc 00 00 00       	jmpq   402ae1 <submitr+0x761>
  402a05:	44 8b 44 24 1c       	mov    0x1c(%rsp),%r8d
  402a0a:	41 81 f8 c8 00 00 00 	cmp    $0xc8,%r8d
  402a11:	74 37                	je     402a4a <submitr+0x6ca>
  402a13:	4c 8d 8c 24 40 80 00 	lea    0x8040(%rsp),%r9
  402a1a:	00 
  402a1b:	b9 c8 36 40 00       	mov    $0x4036c8,%ecx
  402a20:	48 c7 c2 ff ff ff ff 	mov    $0xffffffffffffffff,%rdx
  402a27:	be 01 00 00 00       	mov    $0x1,%esi
  402a2c:	48 89 df             	mov    %rbx,%rdi
  402a2f:	b8 00 00 00 00       	mov    $0x0,%eax
  402a34:	e8 67 e4 ff ff       	callq  400ea0 <__sprintf_chk@plt>
  402a39:	89 ef                	mov    %ebp,%edi
  402a3b:	e8 10 e3 ff ff       	callq  400d50 <close@plt>
  402a40:	b8 ff ff ff ff       	mov    $0xffffffff,%eax
  402a45:	e9 97 00 00 00       	jmpq   402ae1 <submitr+0x761>
  402a4a:	48 8d b4 24 40 20 00 	lea    0x2040(%rsp),%rsi
  402a51:	00 
  402a52:	48 89 df             	mov    %rbx,%rdi
  402a55:	e8 86 e2 ff ff       	callq  400ce0 <strcpy@plt>
  402a5a:	89 ef                	mov    %ebp,%edi
  402a5c:	e8 ef e2 ff ff       	callq  400d50 <close@plt>
  402a61:	0f b6 03             	movzbl (%rbx),%eax
  402a64:	ba 4f 00 00 00       	mov    $0x4f,%edx
  402a69:	29 c2                	sub    %eax,%edx
  402a6b:	75 22                	jne    402a8f <submitr+0x70f>
  402a6d:	0f b6 4b 01          	movzbl 0x1(%rbx),%ecx
  402a71:	b8 4b 00 00 00       	mov    $0x4b,%eax
  402a76:	29 c8                	sub    %ecx,%eax
  402a78:	75 17                	jne    402a91 <submitr+0x711>
  402a7a:	0f b6 4b 02          	movzbl 0x2(%rbx),%ecx
  402a7e:	b8 0a 00 00 00       	mov    $0xa,%eax
  402a83:	29 c8                	sub    %ecx,%eax
  402a85:	75 0a                	jne    402a91 <submitr+0x711>
  402a87:	0f b6 43 03          	movzbl 0x3(%rbx),%eax
  402a8b:	f7 d8                	neg    %eax
  402a8d:	eb 02                	jmp    402a91 <submitr+0x711>
  402a8f:	89 d0                	mov    %edx,%eax
  402a91:	85 c0                	test   %eax,%eax
  402a93:	74 40                	je     402ad5 <submitr+0x755>
  402a95:	bf 10 37 40 00       	mov    $0x403710,%edi
  402a9a:	b9 05 00 00 00       	mov    $0x5,%ecx
  402a9f:	48 89 de             	mov    %rbx,%rsi
  402aa2:	f3 a6                	repz cmpsb %es:(%rdi),%ds:(%rsi)
  402aa4:	0f 97 c0             	seta   %al
  402aa7:	0f 92 c1             	setb   %cl
  402aaa:	29 c8                	sub    %ecx,%eax
  402aac:	0f be c0             	movsbl %al,%eax
  402aaf:	85 c0                	test   %eax,%eax
  402ab1:	74 2e                	je     402ae1 <submitr+0x761>
  402ab3:	85 d2                	test   %edx,%edx
  402ab5:	75 13                	jne    402aca <submitr+0x74a>
  402ab7:	0f b6 43 01          	movzbl 0x1(%rbx),%eax
  402abb:	ba 4b 00 00 00       	mov    $0x4b,%edx
  402ac0:	29 c2                	sub    %eax,%edx
  402ac2:	75 06                	jne    402aca <submitr+0x74a>
  402ac4:	0f b6 53 02          	movzbl 0x2(%rbx),%edx
  402ac8:	f7 da                	neg    %edx
  402aca:	85 d2                	test   %edx,%edx
  402acc:	75 0e                	jne    402adc <submitr+0x75c>
  402ace:	b8 00 00 00 00       	mov    $0x0,%eax
  402ad3:	eb 0c                	jmp    402ae1 <submitr+0x761>
  402ad5:	b8 00 00 00 00       	mov    $0x0,%eax
  402ada:	eb 05                	jmp    402ae1 <submitr+0x761>
  402adc:	b8 ff ff ff ff       	mov    $0xffffffff,%eax
  402ae1:	48 8b 9c 24 48 a0 00 	mov    0xa048(%rsp),%rbx
  402ae8:	00 
  402ae9:	64 48 33 1c 25 28 00 	xor    %fs:0x28,%rbx
  402af0:	00 00 
  402af2:	74 05                	je     402af9 <submitr+0x779>
  402af4:	e8 17 e2 ff ff       	callq  400d10 <__stack_chk_fail@plt>
  402af9:	48 81 c4 58 a0 00 00 	add    $0xa058,%rsp
  402b00:	5b                   	pop    %rbx
  402b01:	5d                   	pop    %rbp
  402b02:	41 5c                	pop    %r12
  402b04:	41 5d                	pop    %r13
  402b06:	41 5e                	pop    %r14
  402b08:	41 5f                	pop    %r15
  402b0a:	c3                   	retq   

0000000000402b0b <init_timeout>:
  402b0b:	85 ff                	test   %edi,%edi
  402b0d:	74 23                	je     402b32 <init_timeout+0x27>
  402b0f:	53                   	push   %rbx
  402b10:	89 fb                	mov    %edi,%ebx
  402b12:	85 ff                	test   %edi,%edi
  402b14:	79 05                	jns    402b1b <init_timeout+0x10>
  402b16:	bb 00 00 00 00       	mov    $0x0,%ebx
  402b1b:	be b4 20 40 00       	mov    $0x4020b4,%esi
  402b20:	bf 0e 00 00 00       	mov    $0xe,%edi
  402b25:	e8 56 e2 ff ff       	callq  400d80 <signal@plt>
  402b2a:	89 df                	mov    %ebx,%edi
  402b2c:	e8 0f e2 ff ff       	callq  400d40 <alarm@plt>
  402b31:	5b                   	pop    %rbx
  402b32:	f3 c3                	repz retq 

0000000000402b34 <init_driver>:
  402b34:	55                   	push   %rbp
  402b35:	53                   	push   %rbx
  402b36:	48 83 ec 28          	sub    $0x28,%rsp
  402b3a:	48 89 fd             	mov    %rdi,%rbp
  402b3d:	64 48 8b 04 25 28 00 	mov    %fs:0x28,%rax
  402b44:	00 00 
  402b46:	48 89 44 24 18       	mov    %rax,0x18(%rsp)
  402b4b:	31 c0                	xor    %eax,%eax
  402b4d:	be 01 00 00 00       	mov    $0x1,%esi
  402b52:	bf 0d 00 00 00       	mov    $0xd,%edi
  402b57:	e8 24 e2 ff ff       	callq  400d80 <signal@plt>
  402b5c:	be 01 00 00 00       	mov    $0x1,%esi
  402b61:	bf 1d 00 00 00       	mov    $0x1d,%edi
  402b66:	e8 15 e2 ff ff       	callq  400d80 <signal@plt>
  402b6b:	be 01 00 00 00       	mov    $0x1,%esi
  402b70:	bf 1d 00 00 00       	mov    $0x1d,%edi
  402b75:	e8 06 e2 ff ff       	callq  400d80 <signal@plt>
  402b7a:	ba 00 00 00 00       	mov    $0x0,%edx
  402b7f:	be 01 00 00 00       	mov    $0x1,%esi
  402b84:	bf 02 00 00 00       	mov    $0x2,%edi
  402b89:	e8 22 e3 ff ff       	callq  400eb0 <socket@plt>
  402b8e:	85 c0                	test   %eax,%eax
  402b90:	79 4f                	jns    402be1 <init_driver+0xad>
  402b92:	48 b8 45 72 72 6f 72 	movabs $0x43203a726f727245,%rax
  402b99:	3a 20 43 
  402b9c:	48 89 45 00          	mov    %rax,0x0(%rbp)
  402ba0:	48 b8 6c 69 65 6e 74 	movabs $0x6e7520746e65696c,%rax
  402ba7:	20 75 6e 
  402baa:	48 89 45 08          	mov    %rax,0x8(%rbp)
  402bae:	48 b8 61 62 6c 65 20 	movabs $0x206f7420656c6261,%rax
  402bb5:	74 6f 20 
  402bb8:	48 89 45 10          	mov    %rax,0x10(%rbp)
  402bbc:	48 b8 63 72 65 61 74 	movabs $0x7320657461657263,%rax
  402bc3:	65 20 73 
  402bc6:	48 89 45 18          	mov    %rax,0x18(%rbp)
  402bca:	c7 45 20 6f 63 6b 65 	movl   $0x656b636f,0x20(%rbp)
  402bd1:	66 c7 45 24 74 00    	movw   $0x74,0x24(%rbp)
  402bd7:	b8 ff ff ff ff       	mov    $0xffffffff,%eax
  402bdc:	e9 2a 01 00 00       	jmpq   402d0b <init_driver+0x1d7>
  402be1:	89 c3                	mov    %eax,%ebx
  402be3:	bf 35 32 40 00       	mov    $0x403235,%edi
  402be8:	e8 a3 e1 ff ff       	callq  400d90 <gethostbyname@plt>
  402bed:	48 85 c0             	test   %rax,%rax
  402bf0:	75 68                	jne    402c5a <init_driver+0x126>
  402bf2:	48 b8 45 72 72 6f 72 	movabs $0x44203a726f727245,%rax
  402bf9:	3a 20 44 
  402bfc:	48 89 45 00          	mov    %rax,0x0(%rbp)
  402c00:	48 b8 4e 53 20 69 73 	movabs $0x6e7520736920534e,%rax
  402c07:	20 75 6e 
  402c0a:	48 89 45 08          	mov    %rax,0x8(%rbp)
  402c0e:	48 b8 61 62 6c 65 20 	movabs $0x206f7420656c6261,%rax
  402c15:	74 6f 20 
  402c18:	48 89 45 10          	mov    %rax,0x10(%rbp)
  402c1c:	48 b8 72 65 73 6f 6c 	movabs $0x2065766c6f736572,%rax
  402c23:	76 65 20 
  402c26:	48 89 45 18          	mov    %rax,0x18(%rbp)
  402c2a:	48 b8 73 65 72 76 65 	movabs $0x6120726576726573,%rax
  402c31:	72 20 61 
  402c34:	48 89 45 20          	mov    %rax,0x20(%rbp)
  402c38:	c7 45 28 64 64 72 65 	movl   $0x65726464,0x28(%rbp)
  402c3f:	66 c7 45 2c 73 73    	movw   $0x7373,0x2c(%rbp)
  402c45:	c6 45 2e 00          	movb   $0x0,0x2e(%rbp)
  402c49:	89 df                	mov    %ebx,%edi
  402c4b:	e8 00 e1 ff ff       	callq  400d50 <close@plt>
  402c50:	b8 ff ff ff ff       	mov    $0xffffffff,%eax
  402c55:	e9 b1 00 00 00       	jmpq   402d0b <init_driver+0x1d7>
  402c5a:	48 c7 04 24 00 00 00 	movq   $0x0,(%rsp)
  402c61:	00 
  402c62:	48 c7 44 24 08 00 00 	movq   $0x0,0x8(%rsp)
  402c69:	00 00 
  402c6b:	66 c7 04 24 02 00    	movw   $0x2,(%rsp)
  402c71:	48 63 50 14          	movslq 0x14(%rax),%rdx
  402c75:	48 8b 40 18          	mov    0x18(%rax),%rax
  402c79:	48 8b 30             	mov    (%rax),%rsi
  402c7c:	48 8d 7c 24 04       	lea    0x4(%rsp),%rdi
  402c81:	b9 0c 00 00 00       	mov    $0xc,%ecx
  402c86:	e8 15 e1 ff ff       	callq  400da0 <__memmove_chk@plt>
  402c8b:	66 c7 44 24 02 00 50 	movw   $0x5000,0x2(%rsp)
  402c92:	ba 10 00 00 00       	mov    $0x10,%edx
  402c97:	48 89 e6             	mov    %rsp,%rsi
  402c9a:	89 df                	mov    %ebx,%edi
  402c9c:	e8 df e1 ff ff       	callq  400e80 <connect@plt>
  402ca1:	85 c0                	test   %eax,%eax
  402ca3:	79 50                	jns    402cf5 <init_driver+0x1c1>
  402ca5:	48 b8 45 72 72 6f 72 	movabs $0x55203a726f727245,%rax
  402cac:	3a 20 55 
  402caf:	48 89 45 00          	mov    %rax,0x0(%rbp)
  402cb3:	48 b8 6e 61 62 6c 65 	movabs $0x6f7420656c62616e,%rax
  402cba:	20 74 6f 
  402cbd:	48 89 45 08          	mov    %rax,0x8(%rbp)
  402cc1:	48 b8 20 63 6f 6e 6e 	movabs $0x7463656e6e6f6320,%rax
  402cc8:	65 63 74 
  402ccb:	48 89 45 10          	mov    %rax,0x10(%rbp)
  402ccf:	48 b8 20 74 6f 20 73 	movabs $0x76726573206f7420,%rax
  402cd6:	65 72 76 
  402cd9:	48 89 45 18          	mov    %rax,0x18(%rbp)
  402cdd:	66 c7 45 20 65 72    	movw   $0x7265,0x20(%rbp)
  402ce3:	c6 45 22 00          	movb   $0x0,0x22(%rbp)
  402ce7:	89 df                	mov    %ebx,%edi
  402ce9:	e8 62 e0 ff ff       	callq  400d50 <close@plt>
  402cee:	b8 ff ff ff ff       	mov    $0xffffffff,%eax
  402cf3:	eb 16                	jmp    402d0b <init_driver+0x1d7>
  402cf5:	89 df                	mov    %ebx,%edi
  402cf7:	e8 54 e0 ff ff       	callq  400d50 <close@plt>
  402cfc:	66 c7 45 00 4f 4b    	movw   $0x4b4f,0x0(%rbp)
  402d02:	c6 45 02 00          	movb   $0x0,0x2(%rbp)
  402d06:	b8 00 00 00 00       	mov    $0x0,%eax
  402d0b:	48 8b 4c 24 18       	mov    0x18(%rsp),%rcx
  402d10:	64 48 33 0c 25 28 00 	xor    %fs:0x28,%rcx
  402d17:	00 00 
  402d19:	74 05                	je     402d20 <init_driver+0x1ec>
  402d1b:	e8 f0 df ff ff       	callq  400d10 <__stack_chk_fail@plt>
  402d20:	48 83 c4 28          	add    $0x28,%rsp
  402d24:	5b                   	pop    %rbx
  402d25:	5d                   	pop    %rbp
  402d26:	c3                   	retq   

0000000000402d27 <driver_post>:
  402d27:	53                   	push   %rbx
  402d28:	4c 89 cb             	mov    %r9,%rbx
  402d2b:	45 85 c0             	test   %r8d,%r8d
  402d2e:	74 27                	je     402d57 <driver_post+0x30>
  402d30:	48 89 ca             	mov    %rcx,%rdx
  402d33:	be 15 37 40 00       	mov    $0x403715,%esi
  402d38:	bf 01 00 00 00       	mov    $0x1,%edi
  402d3d:	b8 00 00 00 00       	mov    $0x0,%eax
  402d42:	e8 d9 e0 ff ff       	callq  400e20 <__printf_chk@plt>
  402d47:	66 c7 03 4f 4b       	movw   $0x4b4f,(%rbx)
  402d4c:	c6 43 02 00          	movb   $0x0,0x2(%rbx)
  402d50:	b8 00 00 00 00       	mov    $0x0,%eax
  402d55:	eb 3f                	jmp    402d96 <driver_post+0x6f>
  402d57:	48 85 ff             	test   %rdi,%rdi
  402d5a:	74 2c                	je     402d88 <driver_post+0x61>
  402d5c:	80 3f 00             	cmpb   $0x0,(%rdi)
  402d5f:	74 27                	je     402d88 <driver_post+0x61>
  402d61:	48 83 ec 08          	sub    $0x8,%rsp
  402d65:	41 51                	push   %r9
  402d67:	49 89 c9             	mov    %rcx,%r9
  402d6a:	49 89 d0             	mov    %rdx,%r8
  402d6d:	48 89 f9             	mov    %rdi,%rcx
  402d70:	48 89 f2             	mov    %rsi,%rdx
  402d73:	be 50 00 00 00       	mov    $0x50,%esi
  402d78:	bf 35 32 40 00       	mov    $0x403235,%edi
  402d7d:	e8 fe f5 ff ff       	callq  402380 <submitr>
  402d82:	48 83 c4 10          	add    $0x10,%rsp
  402d86:	eb 0e                	jmp    402d96 <driver_post+0x6f>
  402d88:	66 c7 03 4f 4b       	movw   $0x4b4f,(%rbx)
  402d8d:	c6 43 02 00          	movb   $0x0,0x2(%rbx)
  402d91:	b8 00 00 00 00       	mov    $0x0,%eax
  402d96:	5b                   	pop    %rbx
  402d97:	c3                   	retq   

0000000000402d98 <check>:
  402d98:	89 f8                	mov    %edi,%eax
  402d9a:	c1 e8 1c             	shr    $0x1c,%eax
  402d9d:	85 c0                	test   %eax,%eax
  402d9f:	74 1d                	je     402dbe <check+0x26>
  402da1:	b9 00 00 00 00       	mov    $0x0,%ecx
  402da6:	eb 0b                	jmp    402db3 <check+0x1b>
  402da8:	89 f8                	mov    %edi,%eax
  402daa:	d3 e8                	shr    %cl,%eax
  402dac:	3c 0a                	cmp    $0xa,%al
  402dae:	74 14                	je     402dc4 <check+0x2c>
  402db0:	83 c1 08             	add    $0x8,%ecx
  402db3:	83 f9 1f             	cmp    $0x1f,%ecx
  402db6:	7e f0                	jle    402da8 <check+0x10>
  402db8:	b8 01 00 00 00       	mov    $0x1,%eax
  402dbd:	c3                   	retq   
  402dbe:	b8 00 00 00 00       	mov    $0x0,%eax
  402dc3:	c3                   	retq   
  402dc4:	b8 00 00 00 00       	mov    $0x0,%eax
  402dc9:	c3                   	retq   

0000000000402dca <gencookie>:
  402dca:	53                   	push   %rbx
  402dcb:	83 c7 01             	add    $0x1,%edi
  402dce:	e8 ed de ff ff       	callq  400cc0 <srandom@plt>
  402dd3:	e8 08 e0 ff ff       	callq  400de0 <random@plt>
  402dd8:	89 c3                	mov    %eax,%ebx
  402dda:	89 c7                	mov    %eax,%edi
  402ddc:	e8 b7 ff ff ff       	callq  402d98 <check>
  402de1:	85 c0                	test   %eax,%eax
  402de3:	74 ee                	je     402dd3 <gencookie+0x9>
  402de5:	89 d8                	mov    %ebx,%eax
  402de7:	5b                   	pop    %rbx
  402de8:	c3                   	retq   
  402de9:	0f 1f 80 00 00 00 00 	nopl   0x0(%rax)

0000000000402df0 <__libc_csu_init>:
  402df0:	41 57                	push   %r15
  402df2:	41 56                	push   %r14
  402df4:	41 89 ff             	mov    %edi,%r15d
  402df7:	41 55                	push   %r13
  402df9:	41 54                	push   %r12
  402dfb:	4c 8d 25 fe 1f 20 00 	lea    0x201ffe(%rip),%r12        # 604e00 <__frame_dummy_init_array_entry>
  402e02:	55                   	push   %rbp
  402e03:	48 8d 2d fe 1f 20 00 	lea    0x201ffe(%rip),%rbp        # 604e08 <__init_array_end>
  402e0a:	53                   	push   %rbx
  402e0b:	49 89 f6             	mov    %rsi,%r14
  402e0e:	49 89 d5             	mov    %rdx,%r13
  402e11:	4c 29 e5             	sub    %r12,%rbp
  402e14:	48 83 ec 08          	sub    $0x8,%rsp
  402e18:	48 c1 fd 03          	sar    $0x3,%rbp
  402e1c:	e8 47 de ff ff       	callq  400c68 <_init>
  402e21:	48 85 ed             	test   %rbp,%rbp
  402e24:	74 20                	je     402e46 <__libc_csu_init+0x56>
  402e26:	31 db                	xor    %ebx,%ebx
  402e28:	0f 1f 84 00 00 00 00 	nopl   0x0(%rax,%rax,1)
  402e2f:	00 
  402e30:	4c 89 ea             	mov    %r13,%rdx
  402e33:	4c 89 f6             	mov    %r14,%rsi
  402e36:	44 89 ff             	mov    %r15d,%edi
  402e39:	41 ff 14 dc          	callq  *(%r12,%rbx,8)
  402e3d:	48 83 c3 01          	add    $0x1,%rbx
  402e41:	48 39 eb             	cmp    %rbp,%rbx
  402e44:	75 ea                	jne    402e30 <__libc_csu_init+0x40>
  402e46:	48 83 c4 08          	add    $0x8,%rsp
  402e4a:	5b                   	pop    %rbx
  402e4b:	5d                   	pop    %rbp
  402e4c:	41 5c                	pop    %r12
  402e4e:	41 5d                	pop    %r13
  402e50:	41 5e                	pop    %r14
  402e52:	41 5f                	pop    %r15
  402e54:	c3                   	retq   
  402e55:	90                   	nop
  402e56:	66 2e 0f 1f 84 00 00 	nopw   %cs:0x0(%rax,%rax,1)
  402e5d:	00 00 00 

0000000000402e60 <__libc_csu_fini>:
  402e60:	f3 c3                	repz retq 

Disassembly of section .fini:

0000000000402e64 <_fini>:
  402e64:	48 83 ec 08          	sub    $0x8,%rsp
  402e68:	48 83 c4 08          	add    $0x8,%rsp
  402e6c:	c3                   	retq   
