
rtarget:     file format elf64-x86-64


Disassembly of section .init:

0000000000400c68 <_init>:
  400c68:	48 83 ec 08          	sub    $0x8,%rsp
  400c6c:	48 8b 05 85 43 20 00 	mov    0x204385(%rip),%rax        # 604ff8 <_DYNAMIC+0x1e0>
  400c73:	48 85 c0             	test   %rax,%rax
  400c76:	74 05                	je     400c7d <_init+0x15>
  400c78:	e8 43 02 00 00       	callq  400ec0 <socket@plt+0x10>
  400c7d:	48 83 c4 08          	add    $0x8,%rsp
  400c81:	c3                   	retq   

Disassembly of section .plt:

0000000000400c90 <strcasecmp@plt-0x10>:
  400c90:	ff 35 72 43 20 00    	pushq  0x204372(%rip)        # 605008 <_GLOBAL_OFFSET_TABLE_+0x8>
  400c96:	ff 25 74 43 20 00    	jmpq   *0x204374(%rip)        # 605010 <_GLOBAL_OFFSET_TABLE_+0x10>
  400c9c:	0f 1f 40 00          	nopl   0x0(%rax)

0000000000400ca0 <strcasecmp@plt>:
  400ca0:	ff 25 72 43 20 00    	jmpq   *0x204372(%rip)        # 605018 <_GLOBAL_OFFSET_TABLE_+0x18>
  400ca6:	68 00 00 00 00       	pushq  $0x0
  400cab:	e9 e0 ff ff ff       	jmpq   400c90 <_init+0x28>

0000000000400cb0 <__errno_location@plt>:
  400cb0:	ff 25 6a 43 20 00    	jmpq   *0x20436a(%rip)        # 605020 <_GLOBAL_OFFSET_TABLE_+0x20>
  400cb6:	68 01 00 00 00       	pushq  $0x1
  400cbb:	e9 d0 ff ff ff       	jmpq   400c90 <_init+0x28>

0000000000400cc0 <srandom@plt>:
  400cc0:	ff 25 62 43 20 00    	jmpq   *0x204362(%rip)        # 605028 <_GLOBAL_OFFSET_TABLE_+0x28>
  400cc6:	68 02 00 00 00       	pushq  $0x2
  400ccb:	e9 c0 ff ff ff       	jmpq   400c90 <_init+0x28>

0000000000400cd0 <strncmp@plt>:
  400cd0:	ff 25 5a 43 20 00    	jmpq   *0x20435a(%rip)        # 605030 <_GLOBAL_OFFSET_TABLE_+0x30>
  400cd6:	68 03 00 00 00       	pushq  $0x3
  400cdb:	e9 b0 ff ff ff       	jmpq   400c90 <_init+0x28>

0000000000400ce0 <strcpy@plt>:
  400ce0:	ff 25 52 43 20 00    	jmpq   *0x204352(%rip)        # 605038 <_GLOBAL_OFFSET_TABLE_+0x38>
  400ce6:	68 04 00 00 00       	pushq  $0x4
  400ceb:	e9 a0 ff ff ff       	jmpq   400c90 <_init+0x28>

0000000000400cf0 <puts@plt>:
  400cf0:	ff 25 4a 43 20 00    	jmpq   *0x20434a(%rip)        # 605040 <_GLOBAL_OFFSET_TABLE_+0x40>
  400cf6:	68 05 00 00 00       	pushq  $0x5
  400cfb:	e9 90 ff ff ff       	jmpq   400c90 <_init+0x28>

0000000000400d00 <write@plt>:
  400d00:	ff 25 42 43 20 00    	jmpq   *0x204342(%rip)        # 605048 <_GLOBAL_OFFSET_TABLE_+0x48>
  400d06:	68 06 00 00 00       	pushq  $0x6
  400d0b:	e9 80 ff ff ff       	jmpq   400c90 <_init+0x28>

0000000000400d10 <__stack_chk_fail@plt>:
  400d10:	ff 25 3a 43 20 00    	jmpq   *0x20433a(%rip)        # 605050 <_GLOBAL_OFFSET_TABLE_+0x50>
  400d16:	68 07 00 00 00       	pushq  $0x7
  400d1b:	e9 70 ff ff ff       	jmpq   400c90 <_init+0x28>

0000000000400d20 <mmap@plt>:
  400d20:	ff 25 32 43 20 00    	jmpq   *0x204332(%rip)        # 605058 <_GLOBAL_OFFSET_TABLE_+0x58>
  400d26:	68 08 00 00 00       	pushq  $0x8
  400d2b:	e9 60 ff ff ff       	jmpq   400c90 <_init+0x28>

0000000000400d30 <memset@plt>:
  400d30:	ff 25 2a 43 20 00    	jmpq   *0x20432a(%rip)        # 605060 <_GLOBAL_OFFSET_TABLE_+0x60>
  400d36:	68 09 00 00 00       	pushq  $0x9
  400d3b:	e9 50 ff ff ff       	jmpq   400c90 <_init+0x28>

0000000000400d40 <alarm@plt>:
  400d40:	ff 25 22 43 20 00    	jmpq   *0x204322(%rip)        # 605068 <_GLOBAL_OFFSET_TABLE_+0x68>
  400d46:	68 0a 00 00 00       	pushq  $0xa
  400d4b:	e9 40 ff ff ff       	jmpq   400c90 <_init+0x28>

0000000000400d50 <close@plt>:
  400d50:	ff 25 1a 43 20 00    	jmpq   *0x20431a(%rip)        # 605070 <_GLOBAL_OFFSET_TABLE_+0x70>
  400d56:	68 0b 00 00 00       	pushq  $0xb
  400d5b:	e9 30 ff ff ff       	jmpq   400c90 <_init+0x28>

0000000000400d60 <read@plt>:
  400d60:	ff 25 12 43 20 00    	jmpq   *0x204312(%rip)        # 605078 <_GLOBAL_OFFSET_TABLE_+0x78>
  400d66:	68 0c 00 00 00       	pushq  $0xc
  400d6b:	e9 20 ff ff ff       	jmpq   400c90 <_init+0x28>

0000000000400d70 <__libc_start_main@plt>:
  400d70:	ff 25 0a 43 20 00    	jmpq   *0x20430a(%rip)        # 605080 <_GLOBAL_OFFSET_TABLE_+0x80>
  400d76:	68 0d 00 00 00       	pushq  $0xd
  400d7b:	e9 10 ff ff ff       	jmpq   400c90 <_init+0x28>

0000000000400d80 <signal@plt>:
  400d80:	ff 25 02 43 20 00    	jmpq   *0x204302(%rip)        # 605088 <_GLOBAL_OFFSET_TABLE_+0x88>
  400d86:	68 0e 00 00 00       	pushq  $0xe
  400d8b:	e9 00 ff ff ff       	jmpq   400c90 <_init+0x28>

0000000000400d90 <gethostbyname@plt>:
  400d90:	ff 25 fa 42 20 00    	jmpq   *0x2042fa(%rip)        # 605090 <_GLOBAL_OFFSET_TABLE_+0x90>
  400d96:	68 0f 00 00 00       	pushq  $0xf
  400d9b:	e9 f0 fe ff ff       	jmpq   400c90 <_init+0x28>

0000000000400da0 <__memmove_chk@plt>:
  400da0:	ff 25 f2 42 20 00    	jmpq   *0x2042f2(%rip)        # 605098 <_GLOBAL_OFFSET_TABLE_+0x98>
  400da6:	68 10 00 00 00       	pushq  $0x10
  400dab:	e9 e0 fe ff ff       	jmpq   400c90 <_init+0x28>

0000000000400db0 <strtol@plt>:
  400db0:	ff 25 ea 42 20 00    	jmpq   *0x2042ea(%rip)        # 6050a0 <_GLOBAL_OFFSET_TABLE_+0xa0>
  400db6:	68 11 00 00 00       	pushq  $0x11
  400dbb:	e9 d0 fe ff ff       	jmpq   400c90 <_init+0x28>

0000000000400dc0 <memcpy@plt>:
  400dc0:	ff 25 e2 42 20 00    	jmpq   *0x2042e2(%rip)        # 6050a8 <_GLOBAL_OFFSET_TABLE_+0xa8>
  400dc6:	68 12 00 00 00       	pushq  $0x12
  400dcb:	e9 c0 fe ff ff       	jmpq   400c90 <_init+0x28>

0000000000400dd0 <time@plt>:
  400dd0:	ff 25 da 42 20 00    	jmpq   *0x2042da(%rip)        # 6050b0 <_GLOBAL_OFFSET_TABLE_+0xb0>
  400dd6:	68 13 00 00 00       	pushq  $0x13
  400ddb:	e9 b0 fe ff ff       	jmpq   400c90 <_init+0x28>

0000000000400de0 <random@plt>:
  400de0:	ff 25 d2 42 20 00    	jmpq   *0x2042d2(%rip)        # 6050b8 <_GLOBAL_OFFSET_TABLE_+0xb8>
  400de6:	68 14 00 00 00       	pushq  $0x14
  400deb:	e9 a0 fe ff ff       	jmpq   400c90 <_init+0x28>

0000000000400df0 <_IO_getc@plt>:
  400df0:	ff 25 ca 42 20 00    	jmpq   *0x2042ca(%rip)        # 6050c0 <_GLOBAL_OFFSET_TABLE_+0xc0>
  400df6:	68 15 00 00 00       	pushq  $0x15
  400dfb:	e9 90 fe ff ff       	jmpq   400c90 <_init+0x28>

0000000000400e00 <__isoc99_sscanf@plt>:
  400e00:	ff 25 c2 42 20 00    	jmpq   *0x2042c2(%rip)        # 6050c8 <_GLOBAL_OFFSET_TABLE_+0xc8>
  400e06:	68 16 00 00 00       	pushq  $0x16
  400e0b:	e9 80 fe ff ff       	jmpq   400c90 <_init+0x28>

0000000000400e10 <munmap@plt>:
  400e10:	ff 25 ba 42 20 00    	jmpq   *0x2042ba(%rip)        # 6050d0 <_GLOBAL_OFFSET_TABLE_+0xd0>
  400e16:	68 17 00 00 00       	pushq  $0x17
  400e1b:	e9 70 fe ff ff       	jmpq   400c90 <_init+0x28>

0000000000400e20 <__printf_chk@plt>:
  400e20:	ff 25 b2 42 20 00    	jmpq   *0x2042b2(%rip)        # 6050d8 <_GLOBAL_OFFSET_TABLE_+0xd8>
  400e26:	68 18 00 00 00       	pushq  $0x18
  400e2b:	e9 60 fe ff ff       	jmpq   400c90 <_init+0x28>

0000000000400e30 <fopen@plt>:
  400e30:	ff 25 aa 42 20 00    	jmpq   *0x2042aa(%rip)        # 6050e0 <_GLOBAL_OFFSET_TABLE_+0xe0>
  400e36:	68 19 00 00 00       	pushq  $0x19
  400e3b:	e9 50 fe ff ff       	jmpq   400c90 <_init+0x28>

0000000000400e40 <getopt@plt>:
  400e40:	ff 25 a2 42 20 00    	jmpq   *0x2042a2(%rip)        # 6050e8 <_GLOBAL_OFFSET_TABLE_+0xe8>
  400e46:	68 1a 00 00 00       	pushq  $0x1a
  400e4b:	e9 40 fe ff ff       	jmpq   400c90 <_init+0x28>

0000000000400e50 <strtoul@plt>:
  400e50:	ff 25 9a 42 20 00    	jmpq   *0x20429a(%rip)        # 6050f0 <_GLOBAL_OFFSET_TABLE_+0xf0>
  400e56:	68 1b 00 00 00       	pushq  $0x1b
  400e5b:	e9 30 fe ff ff       	jmpq   400c90 <_init+0x28>

0000000000400e60 <gethostname@plt>:
  400e60:	ff 25 92 42 20 00    	jmpq   *0x204292(%rip)        # 6050f8 <_GLOBAL_OFFSET_TABLE_+0xf8>
  400e66:	68 1c 00 00 00       	pushq  $0x1c
  400e6b:	e9 20 fe ff ff       	jmpq   400c90 <_init+0x28>

0000000000400e70 <exit@plt>:
  400e70:	ff 25 8a 42 20 00    	jmpq   *0x20428a(%rip)        # 605100 <_GLOBAL_OFFSET_TABLE_+0x100>
  400e76:	68 1d 00 00 00       	pushq  $0x1d
  400e7b:	e9 10 fe ff ff       	jmpq   400c90 <_init+0x28>

0000000000400e80 <connect@plt>:
  400e80:	ff 25 82 42 20 00    	jmpq   *0x204282(%rip)        # 605108 <_GLOBAL_OFFSET_TABLE_+0x108>
  400e86:	68 1e 00 00 00       	pushq  $0x1e
  400e8b:	e9 00 fe ff ff       	jmpq   400c90 <_init+0x28>

0000000000400e90 <__fprintf_chk@plt>:
  400e90:	ff 25 7a 42 20 00    	jmpq   *0x20427a(%rip)        # 605110 <_GLOBAL_OFFSET_TABLE_+0x110>
  400e96:	68 1f 00 00 00       	pushq  $0x1f
  400e9b:	e9 f0 fd ff ff       	jmpq   400c90 <_init+0x28>

0000000000400ea0 <__sprintf_chk@plt>:
  400ea0:	ff 25 72 42 20 00    	jmpq   *0x204272(%rip)        # 605118 <_GLOBAL_OFFSET_TABLE_+0x118>
  400ea6:	68 20 00 00 00       	pushq  $0x20
  400eab:	e9 e0 fd ff ff       	jmpq   400c90 <_init+0x28>

0000000000400eb0 <socket@plt>:
  400eb0:	ff 25 6a 42 20 00    	jmpq   *0x20426a(%rip)        # 605120 <_GLOBAL_OFFSET_TABLE_+0x120>
  400eb6:	68 21 00 00 00       	pushq  $0x21
  400ebb:	e9 d0 fd ff ff       	jmpq   400c90 <_init+0x28>

Disassembly of section .plt.got:

0000000000400ec0 <.plt.got>:
  400ec0:	ff 25 32 41 20 00    	jmpq   *0x204132(%rip)        # 604ff8 <_DYNAMIC+0x1e0>
  400ec6:	66 90                	xchg   %ax,%ax

Disassembly of section .text:

0000000000400ed0 <_start>:
  400ed0:	31 ed                	xor    %ebp,%ebp
  400ed2:	49 89 d1             	mov    %rdx,%r9
  400ed5:	5e                   	pop    %rsi
  400ed6:	48 89 e2             	mov    %rsp,%rdx
  400ed9:	48 83 e4 f0          	and    $0xfffffffffffffff0,%rsp
  400edd:	50                   	push   %rax
  400ede:	54                   	push   %rsp
  400edf:	49 c7 c0 80 2f 40 00 	mov    $0x402f80,%r8
  400ee6:	48 c7 c1 10 2f 40 00 	mov    $0x402f10,%rcx
  400eed:	48 c7 c7 d5 11 40 00 	mov    $0x4011d5,%rdi
  400ef4:	e8 77 fe ff ff       	callq  400d70 <__libc_start_main@plt>
  400ef9:	f4                   	hlt    
  400efa:	66 0f 1f 44 00 00    	nopw   0x0(%rax,%rax,1)

0000000000400f00 <deregister_tm_clones>:
  400f00:	b8 b7 54 60 00       	mov    $0x6054b7,%eax
  400f05:	55                   	push   %rbp
  400f06:	48 2d b0 54 60 00    	sub    $0x6054b0,%rax
  400f0c:	48 83 f8 0e          	cmp    $0xe,%rax
  400f10:	48 89 e5             	mov    %rsp,%rbp
  400f13:	76 1b                	jbe    400f30 <deregister_tm_clones+0x30>
  400f15:	b8 00 00 00 00       	mov    $0x0,%eax
  400f1a:	48 85 c0             	test   %rax,%rax
  400f1d:	74 11                	je     400f30 <deregister_tm_clones+0x30>
  400f1f:	5d                   	pop    %rbp
  400f20:	bf b0 54 60 00       	mov    $0x6054b0,%edi
  400f25:	ff e0                	jmpq   *%rax
  400f27:	66 0f 1f 84 00 00 00 	nopw   0x0(%rax,%rax,1)
  400f2e:	00 00 
  400f30:	5d                   	pop    %rbp
  400f31:	c3                   	retq   
  400f32:	0f 1f 40 00          	nopl   0x0(%rax)
  400f36:	66 2e 0f 1f 84 00 00 	nopw   %cs:0x0(%rax,%rax,1)
  400f3d:	00 00 00 

0000000000400f40 <register_tm_clones>:
  400f40:	be b0 54 60 00       	mov    $0x6054b0,%esi
  400f45:	55                   	push   %rbp
  400f46:	48 81 ee b0 54 60 00 	sub    $0x6054b0,%rsi
  400f4d:	48 c1 fe 03          	sar    $0x3,%rsi
  400f51:	48 89 e5             	mov    %rsp,%rbp
  400f54:	48 89 f0             	mov    %rsi,%rax
  400f57:	48 c1 e8 3f          	shr    $0x3f,%rax
  400f5b:	48 01 c6             	add    %rax,%rsi
  400f5e:	48 d1 fe             	sar    %rsi
  400f61:	74 15                	je     400f78 <register_tm_clones+0x38>
  400f63:	b8 00 00 00 00       	mov    $0x0,%eax
  400f68:	48 85 c0             	test   %rax,%rax
  400f6b:	74 0b                	je     400f78 <register_tm_clones+0x38>
  400f6d:	5d                   	pop    %rbp
  400f6e:	bf b0 54 60 00       	mov    $0x6054b0,%edi
  400f73:	ff e0                	jmpq   *%rax
  400f75:	0f 1f 00             	nopl   (%rax)
  400f78:	5d                   	pop    %rbp
  400f79:	c3                   	retq   
  400f7a:	66 0f 1f 44 00 00    	nopw   0x0(%rax,%rax,1)

0000000000400f80 <__do_global_dtors_aux>:
  400f80:	80 3d 61 45 20 00 00 	cmpb   $0x0,0x204561(%rip)        # 6054e8 <completed.7585>
  400f87:	75 11                	jne    400f9a <__do_global_dtors_aux+0x1a>
  400f89:	55                   	push   %rbp
  400f8a:	48 89 e5             	mov    %rsp,%rbp
  400f8d:	e8 6e ff ff ff       	callq  400f00 <deregister_tm_clones>
  400f92:	5d                   	pop    %rbp
  400f93:	c6 05 4e 45 20 00 01 	movb   $0x1,0x20454e(%rip)        # 6054e8 <completed.7585>
  400f9a:	f3 c3                	repz retq 
  400f9c:	0f 1f 40 00          	nopl   0x0(%rax)

0000000000400fa0 <frame_dummy>:
  400fa0:	bf 10 4e 60 00       	mov    $0x604e10,%edi
  400fa5:	48 83 3f 00          	cmpq   $0x0,(%rdi)
  400fa9:	75 05                	jne    400fb0 <frame_dummy+0x10>
  400fab:	eb 93                	jmp    400f40 <register_tm_clones>
  400fad:	0f 1f 00             	nopl   (%rax)
  400fb0:	b8 00 00 00 00       	mov    $0x0,%eax
  400fb5:	48 85 c0             	test   %rax,%rax
  400fb8:	74 f1                	je     400fab <frame_dummy+0xb>
  400fba:	55                   	push   %rbp
  400fbb:	48 89 e5             	mov    %rsp,%rbp
  400fbe:	ff d0                	callq  *%rax
  400fc0:	5d                   	pop    %rbp
  400fc1:	e9 7a ff ff ff       	jmpq   400f40 <register_tm_clones>

0000000000400fc6 <usage>:
  400fc6:	48 83 ec 08          	sub    $0x8,%rsp
  400fca:	48 89 fa             	mov    %rdi,%rdx
  400fcd:	83 3d 54 45 20 00 00 	cmpl   $0x0,0x204554(%rip)        # 605528 <is_checker>
  400fd4:	74 3e                	je     401014 <usage+0x4e>
  400fd6:	be 98 2f 40 00       	mov    $0x402f98,%esi
  400fdb:	bf 01 00 00 00       	mov    $0x1,%edi
  400fe0:	b8 00 00 00 00       	mov    $0x0,%eax
  400fe5:	e8 36 fe ff ff       	callq  400e20 <__printf_chk@plt>
  400fea:	bf d0 2f 40 00       	mov    $0x402fd0,%edi
  400fef:	e8 fc fc ff ff       	callq  400cf0 <puts@plt>
  400ff4:	bf 48 31 40 00       	mov    $0x403148,%edi
  400ff9:	e8 f2 fc ff ff       	callq  400cf0 <puts@plt>
  400ffe:	bf f8 2f 40 00       	mov    $0x402ff8,%edi
  401003:	e8 e8 fc ff ff       	callq  400cf0 <puts@plt>
  401008:	bf 62 31 40 00       	mov    $0x403162,%edi
  40100d:	e8 de fc ff ff       	callq  400cf0 <puts@plt>
  401012:	eb 32                	jmp    401046 <usage+0x80>
  401014:	be 7e 31 40 00       	mov    $0x40317e,%esi
  401019:	bf 01 00 00 00       	mov    $0x1,%edi
  40101e:	b8 00 00 00 00       	mov    $0x0,%eax
  401023:	e8 f8 fd ff ff       	callq  400e20 <__printf_chk@plt>
  401028:	bf 20 30 40 00       	mov    $0x403020,%edi
  40102d:	e8 be fc ff ff       	callq  400cf0 <puts@plt>
  401032:	bf 48 30 40 00       	mov    $0x403048,%edi
  401037:	e8 b4 fc ff ff       	callq  400cf0 <puts@plt>
  40103c:	bf 9c 31 40 00       	mov    $0x40319c,%edi
  401041:	e8 aa fc ff ff       	callq  400cf0 <puts@plt>
  401046:	bf 00 00 00 00       	mov    $0x0,%edi
  40104b:	e8 20 fe ff ff       	callq  400e70 <exit@plt>

0000000000401050 <initialize_target>:
  401050:	55                   	push   %rbp
  401051:	53                   	push   %rbx
  401052:	48 81 ec 18 21 00 00 	sub    $0x2118,%rsp
  401059:	89 f5                	mov    %esi,%ebp
  40105b:	64 48 8b 04 25 28 00 	mov    %fs:0x28,%rax
  401062:	00 00 
  401064:	48 89 84 24 08 21 00 	mov    %rax,0x2108(%rsp)
  40106b:	00 
  40106c:	31 c0                	xor    %eax,%eax
  40106e:	89 3d a4 44 20 00    	mov    %edi,0x2044a4(%rip)        # 605518 <check_level>
  401074:	8b 3d ee 40 20 00    	mov    0x2040ee(%rip),%edi        # 605168 <target_id>
  40107a:	e8 6b 1e 00 00       	callq  402eea <gencookie>
  40107f:	89 05 9f 44 20 00    	mov    %eax,0x20449f(%rip)        # 605524 <cookie>
  401085:	89 c7                	mov    %eax,%edi
  401087:	e8 5e 1e 00 00       	callq  402eea <gencookie>
  40108c:	89 05 8e 44 20 00    	mov    %eax,0x20448e(%rip)        # 605520 <authkey>
  401092:	8b 05 d0 40 20 00    	mov    0x2040d0(%rip),%eax        # 605168 <target_id>
  401098:	8d 78 01             	lea    0x1(%rax),%edi
  40109b:	e8 20 fc ff ff       	callq  400cc0 <srandom@plt>
  4010a0:	e8 3b fd ff ff       	callq  400de0 <random@plt>
  4010a5:	89 c7                	mov    %eax,%edi
  4010a7:	e8 03 03 00 00       	callq  4013af <scramble>
  4010ac:	89 c3                	mov    %eax,%ebx
  4010ae:	85 ed                	test   %ebp,%ebp
  4010b0:	74 18                	je     4010ca <initialize_target+0x7a>
  4010b2:	bf 00 00 00 00       	mov    $0x0,%edi
  4010b7:	e8 14 fd ff ff       	callq  400dd0 <time@plt>
  4010bc:	89 c7                	mov    %eax,%edi
  4010be:	e8 fd fb ff ff       	callq  400cc0 <srandom@plt>
  4010c3:	e8 18 fd ff ff       	callq  400de0 <random@plt>
  4010c8:	eb 05                	jmp    4010cf <initialize_target+0x7f>
  4010ca:	b8 00 00 00 00       	mov    $0x0,%eax
  4010cf:	01 c3                	add    %eax,%ebx
  4010d1:	0f b7 db             	movzwl %bx,%ebx
  4010d4:	8d 04 dd 00 01 00 00 	lea    0x100(,%rbx,8),%eax
  4010db:	89 c0                	mov    %eax,%eax
  4010dd:	48 89 05 bc 43 20 00 	mov    %rax,0x2043bc(%rip)        # 6054a0 <buf_offset>
  4010e4:	c6 05 5d 50 20 00 72 	movb   $0x72,0x20505d(%rip)        # 606148 <target_prefix>
  4010eb:	83 3d b6 43 20 00 00 	cmpl   $0x0,0x2043b6(%rip)        # 6054a8 <notify>
  4010f2:	0f 84 bb 00 00 00    	je     4011b3 <initialize_target+0x163>
  4010f8:	83 3d 29 44 20 00 00 	cmpl   $0x0,0x204429(%rip)        # 605528 <is_checker>
  4010ff:	0f 85 ae 00 00 00    	jne    4011b3 <initialize_target+0x163>
  401105:	be 00 01 00 00       	mov    $0x100,%esi
  40110a:	48 89 e7             	mov    %rsp,%rdi
  40110d:	e8 4e fd ff ff       	callq  400e60 <gethostname@plt>
  401112:	85 c0                	test   %eax,%eax
  401114:	74 25                	je     40113b <initialize_target+0xeb>
  401116:	bf 78 30 40 00       	mov    $0x403078,%edi
  40111b:	e8 d0 fb ff ff       	callq  400cf0 <puts@plt>
  401120:	bf 08 00 00 00       	mov    $0x8,%edi
  401125:	e8 46 fd ff ff       	callq  400e70 <exit@plt>
  40112a:	48 89 e6             	mov    %rsp,%rsi
  40112d:	e8 6e fb ff ff       	callq  400ca0 <strcasecmp@plt>
  401132:	85 c0                	test   %eax,%eax
  401134:	74 21                	je     401157 <initialize_target+0x107>
  401136:	83 c3 01             	add    $0x1,%ebx
  401139:	eb 05                	jmp    401140 <initialize_target+0xf0>
  40113b:	bb 00 00 00 00       	mov    $0x0,%ebx
  401140:	48 63 c3             	movslq %ebx,%rax
  401143:	48 8b 3c c5 80 51 60 	mov    0x605180(,%rax,8),%rdi
  40114a:	00 
  40114b:	48 85 ff             	test   %rdi,%rdi
  40114e:	75 da                	jne    40112a <initialize_target+0xda>
  401150:	b8 00 00 00 00       	mov    $0x0,%eax
  401155:	eb 05                	jmp    40115c <initialize_target+0x10c>
  401157:	b8 01 00 00 00       	mov    $0x1,%eax
  40115c:	85 c0                	test   %eax,%eax
  40115e:	75 1c                	jne    40117c <initialize_target+0x12c>
  401160:	48 89 e2             	mov    %rsp,%rdx
  401163:	be b0 30 40 00       	mov    $0x4030b0,%esi
  401168:	bf 01 00 00 00       	mov    $0x1,%edi
  40116d:	e8 ae fc ff ff       	callq  400e20 <__printf_chk@plt>
  401172:	bf 08 00 00 00       	mov    $0x8,%edi
  401177:	e8 f4 fc ff ff       	callq  400e70 <exit@plt>
  40117c:	48 8d bc 24 00 01 00 	lea    0x100(%rsp),%rdi
  401183:	00 
  401184:	e8 cb 1a 00 00       	callq  402c54 <init_driver>
  401189:	85 c0                	test   %eax,%eax
  40118b:	79 26                	jns    4011b3 <initialize_target+0x163>
  40118d:	48 8d 94 24 00 01 00 	lea    0x100(%rsp),%rdx
  401194:	00 
  401195:	be f0 30 40 00       	mov    $0x4030f0,%esi
  40119a:	bf 01 00 00 00       	mov    $0x1,%edi
  40119f:	b8 00 00 00 00       	mov    $0x0,%eax
  4011a4:	e8 77 fc ff ff       	callq  400e20 <__printf_chk@plt>
  4011a9:	bf 08 00 00 00       	mov    $0x8,%edi
  4011ae:	e8 bd fc ff ff       	callq  400e70 <exit@plt>
  4011b3:	48 8b 84 24 08 21 00 	mov    0x2108(%rsp),%rax
  4011ba:	00 
  4011bb:	64 48 33 04 25 28 00 	xor    %fs:0x28,%rax
  4011c2:	00 00 
  4011c4:	74 05                	je     4011cb <initialize_target+0x17b>
  4011c6:	e8 45 fb ff ff       	callq  400d10 <__stack_chk_fail@plt>
  4011cb:	48 81 c4 18 21 00 00 	add    $0x2118,%rsp
  4011d2:	5b                   	pop    %rbx
  4011d3:	5d                   	pop    %rbp
  4011d4:	c3                   	retq   

00000000004011d5 <main>:
  4011d5:	41 56                	push   %r14
  4011d7:	41 55                	push   %r13
  4011d9:	41 54                	push   %r12
  4011db:	55                   	push   %rbp
  4011dc:	53                   	push   %rbx
  4011dd:	41 89 fc             	mov    %edi,%r12d
  4011e0:	48 89 f3             	mov    %rsi,%rbx
  4011e3:	be 74 1f 40 00       	mov    $0x401f74,%esi
  4011e8:	bf 0b 00 00 00       	mov    $0xb,%edi
  4011ed:	e8 8e fb ff ff       	callq  400d80 <signal@plt>
  4011f2:	be 26 1f 40 00       	mov    $0x401f26,%esi
  4011f7:	bf 07 00 00 00       	mov    $0x7,%edi
  4011fc:	e8 7f fb ff ff       	callq  400d80 <signal@plt>
  401201:	be c2 1f 40 00       	mov    $0x401fc2,%esi
  401206:	bf 04 00 00 00       	mov    $0x4,%edi
  40120b:	e8 70 fb ff ff       	callq  400d80 <signal@plt>
  401210:	83 3d 11 43 20 00 00 	cmpl   $0x0,0x204311(%rip)        # 605528 <is_checker>
  401217:	74 20                	je     401239 <main+0x64>
  401219:	be 10 20 40 00       	mov    $0x402010,%esi
  40121e:	bf 0e 00 00 00       	mov    $0xe,%edi
  401223:	e8 58 fb ff ff       	callq  400d80 <signal@plt>
  401228:	bf 05 00 00 00       	mov    $0x5,%edi
  40122d:	e8 0e fb ff ff       	callq  400d40 <alarm@plt>
  401232:	bd ba 31 40 00       	mov    $0x4031ba,%ebp
  401237:	eb 05                	jmp    40123e <main+0x69>
  401239:	bd b5 31 40 00       	mov    $0x4031b5,%ebp
  40123e:	48 8b 05 7b 42 20 00 	mov    0x20427b(%rip),%rax        # 6054c0 <stdin@@GLIBC_2.2.5>
  401245:	48 89 05 c4 42 20 00 	mov    %rax,0x2042c4(%rip)        # 605510 <infile>
  40124c:	41 bd 00 00 00 00    	mov    $0x0,%r13d
  401252:	41 be 00 00 00 00    	mov    $0x0,%r14d
  401258:	e9 c6 00 00 00       	jmpq   401323 <main+0x14e>
  40125d:	83 e8 61             	sub    $0x61,%eax
  401260:	3c 10                	cmp    $0x10,%al
  401262:	0f 87 9c 00 00 00    	ja     401304 <main+0x12f>
  401268:	0f b6 c0             	movzbl %al,%eax
  40126b:	ff 24 c5 00 32 40 00 	jmpq   *0x403200(,%rax,8)
  401272:	48 8b 3b             	mov    (%rbx),%rdi
  401275:	e8 4c fd ff ff       	callq  400fc6 <usage>
  40127a:	be 0d 35 40 00       	mov    $0x40350d,%esi
  40127f:	48 8b 3d 42 42 20 00 	mov    0x204242(%rip),%rdi        # 6054c8 <optarg@@GLIBC_2.2.5>
  401286:	e8 a5 fb ff ff       	callq  400e30 <fopen@plt>
  40128b:	48 89 05 7e 42 20 00 	mov    %rax,0x20427e(%rip)        # 605510 <infile>
  401292:	48 85 c0             	test   %rax,%rax
  401295:	0f 85 88 00 00 00    	jne    401323 <main+0x14e>
  40129b:	48 8b 0d 26 42 20 00 	mov    0x204226(%rip),%rcx        # 6054c8 <optarg@@GLIBC_2.2.5>
  4012a2:	ba c2 31 40 00       	mov    $0x4031c2,%edx
  4012a7:	be 01 00 00 00       	mov    $0x1,%esi
  4012ac:	48 8b 3d 2d 42 20 00 	mov    0x20422d(%rip),%rdi        # 6054e0 <stderr@@GLIBC_2.2.5>
  4012b3:	e8 d8 fb ff ff       	callq  400e90 <__fprintf_chk@plt>
  4012b8:	b8 01 00 00 00       	mov    $0x1,%eax
  4012bd:	e9 e4 00 00 00       	jmpq   4013a6 <main+0x1d1>
  4012c2:	ba 10 00 00 00       	mov    $0x10,%edx
  4012c7:	be 00 00 00 00       	mov    $0x0,%esi
  4012cc:	48 8b 3d f5 41 20 00 	mov    0x2041f5(%rip),%rdi        # 6054c8 <optarg@@GLIBC_2.2.5>
  4012d3:	e8 78 fb ff ff       	callq  400e50 <strtoul@plt>
  4012d8:	41 89 c6             	mov    %eax,%r14d
  4012db:	eb 46                	jmp    401323 <main+0x14e>
  4012dd:	ba 0a 00 00 00       	mov    $0xa,%edx
  4012e2:	be 00 00 00 00       	mov    $0x0,%esi
  4012e7:	48 8b 3d da 41 20 00 	mov    0x2041da(%rip),%rdi        # 6054c8 <optarg@@GLIBC_2.2.5>
  4012ee:	e8 bd fa ff ff       	callq  400db0 <strtol@plt>
  4012f3:	41 89 c5             	mov    %eax,%r13d
  4012f6:	eb 2b                	jmp    401323 <main+0x14e>
  4012f8:	c7 05 a6 41 20 00 00 	movl   $0x0,0x2041a6(%rip)        # 6054a8 <notify>
  4012ff:	00 00 00 
  401302:	eb 1f                	jmp    401323 <main+0x14e>
  401304:	0f be d2             	movsbl %dl,%edx
  401307:	be df 31 40 00       	mov    $0x4031df,%esi
  40130c:	bf 01 00 00 00       	mov    $0x1,%edi
  401311:	b8 00 00 00 00       	mov    $0x0,%eax
  401316:	e8 05 fb ff ff       	callq  400e20 <__printf_chk@plt>
  40131b:	48 8b 3b             	mov    (%rbx),%rdi
  40131e:	e8 a3 fc ff ff       	callq  400fc6 <usage>
  401323:	48 89 ea             	mov    %rbp,%rdx
  401326:	48 89 de             	mov    %rbx,%rsi
  401329:	44 89 e7             	mov    %r12d,%edi
  40132c:	e8 0f fb ff ff       	callq  400e40 <getopt@plt>
  401331:	89 c2                	mov    %eax,%edx
  401333:	3c ff                	cmp    $0xff,%al
  401335:	0f 85 22 ff ff ff    	jne    40125d <main+0x88>
  40133b:	be 01 00 00 00       	mov    $0x1,%esi
  401340:	44 89 ef             	mov    %r13d,%edi
  401343:	e8 08 fd ff ff       	callq  401050 <initialize_target>
  401348:	83 3d d9 41 20 00 00 	cmpl   $0x0,0x2041d9(%rip)        # 605528 <is_checker>
  40134f:	74 2a                	je     40137b <main+0x1a6>
  401351:	44 3b 35 c8 41 20 00 	cmp    0x2041c8(%rip),%r14d        # 605520 <authkey>
  401358:	74 21                	je     40137b <main+0x1a6>
  40135a:	44 89 f2             	mov    %r14d,%edx
  40135d:	be 18 31 40 00       	mov    $0x403118,%esi
  401362:	bf 01 00 00 00       	mov    $0x1,%edi
  401367:	b8 00 00 00 00       	mov    $0x0,%eax
  40136c:	e8 af fa ff ff       	callq  400e20 <__printf_chk@plt>
  401371:	b8 00 00 00 00       	mov    $0x0,%eax
  401376:	e8 47 08 00 00       	callq  401bc2 <check_fail>
  40137b:	8b 15 a3 41 20 00    	mov    0x2041a3(%rip),%edx        # 605524 <cookie>
  401381:	be f2 31 40 00       	mov    $0x4031f2,%esi
  401386:	bf 01 00 00 00       	mov    $0x1,%edi
  40138b:	b8 00 00 00 00       	mov    $0x0,%eax
  401390:	e8 8b fa ff ff       	callq  400e20 <__printf_chk@plt>
  401395:	48 8b 3d 04 41 20 00 	mov    0x204104(%rip),%rdi        # 6054a0 <buf_offset>
  40139c:	e8 c2 0c 00 00       	callq  402063 <launch>
  4013a1:	b8 00 00 00 00       	mov    $0x0,%eax
  4013a6:	5b                   	pop    %rbx
  4013a7:	5d                   	pop    %rbp
  4013a8:	41 5c                	pop    %r12
  4013aa:	41 5d                	pop    %r13
  4013ac:	41 5e                	pop    %r14
  4013ae:	c3                   	retq   

00000000004013af <scramble>:
  4013af:	48 83 ec 38          	sub    $0x38,%rsp
  4013b3:	64 48 8b 04 25 28 00 	mov    %fs:0x28,%rax
  4013ba:	00 00 
  4013bc:	48 89 44 24 28       	mov    %rax,0x28(%rsp)
  4013c1:	31 c0                	xor    %eax,%eax
  4013c3:	eb 10                	jmp    4013d5 <scramble+0x26>
  4013c5:	69 d0 07 25 00 00    	imul   $0x2507,%eax,%edx
  4013cb:	01 fa                	add    %edi,%edx
  4013cd:	89 c1                	mov    %eax,%ecx
  4013cf:	89 14 8c             	mov    %edx,(%rsp,%rcx,4)
  4013d2:	83 c0 01             	add    $0x1,%eax
  4013d5:	83 f8 09             	cmp    $0x9,%eax
  4013d8:	76 eb                	jbe    4013c5 <scramble+0x16>
  4013da:	8b 44 24 08          	mov    0x8(%rsp),%eax
  4013de:	69 c0 c5 ec 00 00    	imul   $0xecc5,%eax,%eax
  4013e4:	89 44 24 08          	mov    %eax,0x8(%rsp)
  4013e8:	8b 44 24 08          	mov    0x8(%rsp),%eax
  4013ec:	69 c0 2d 86 00 00    	imul   $0x862d,%eax,%eax
  4013f2:	89 44 24 08          	mov    %eax,0x8(%rsp)
  4013f6:	8b 44 24 24          	mov    0x24(%rsp),%eax
  4013fa:	69 c0 1f aa 00 00    	imul   $0xaa1f,%eax,%eax
  401400:	89 44 24 24          	mov    %eax,0x24(%rsp)
  401404:	8b 44 24 0c          	mov    0xc(%rsp),%eax
  401408:	69 c0 87 c3 00 00    	imul   $0xc387,%eax,%eax
  40140e:	89 44 24 0c          	mov    %eax,0xc(%rsp)
  401412:	8b 44 24 0c          	mov    0xc(%rsp),%eax
  401416:	69 c0 32 fc 00 00    	imul   $0xfc32,%eax,%eax
  40141c:	89 44 24 0c          	mov    %eax,0xc(%rsp)
  401420:	8b 44 24 24          	mov    0x24(%rsp),%eax
  401424:	69 c0 b0 5e 00 00    	imul   $0x5eb0,%eax,%eax
  40142a:	89 44 24 24          	mov    %eax,0x24(%rsp)
  40142e:	8b 44 24 18          	mov    0x18(%rsp),%eax
  401432:	69 c0 5d e2 00 00    	imul   $0xe25d,%eax,%eax
  401438:	89 44 24 18          	mov    %eax,0x18(%rsp)
  40143c:	8b 44 24 1c          	mov    0x1c(%rsp),%eax
  401440:	69 c0 10 26 00 00    	imul   $0x2610,%eax,%eax
  401446:	89 44 24 1c          	mov    %eax,0x1c(%rsp)
  40144a:	8b 04 24             	mov    (%rsp),%eax
  40144d:	69 c0 9a fb 00 00    	imul   $0xfb9a,%eax,%eax
  401453:	89 04 24             	mov    %eax,(%rsp)
  401456:	8b 44 24 1c          	mov    0x1c(%rsp),%eax
  40145a:	69 c0 77 e5 00 00    	imul   $0xe577,%eax,%eax
  401460:	89 44 24 1c          	mov    %eax,0x1c(%rsp)
  401464:	8b 44 24 20          	mov    0x20(%rsp),%eax
  401468:	69 c0 6b 2a 00 00    	imul   $0x2a6b,%eax,%eax
  40146e:	89 44 24 20          	mov    %eax,0x20(%rsp)
  401472:	8b 44 24 18          	mov    0x18(%rsp),%eax
  401476:	69 c0 66 d8 00 00    	imul   $0xd866,%eax,%eax
  40147c:	89 44 24 18          	mov    %eax,0x18(%rsp)
  401480:	8b 44 24 10          	mov    0x10(%rsp),%eax
  401484:	69 c0 49 09 00 00    	imul   $0x949,%eax,%eax
  40148a:	89 44 24 10          	mov    %eax,0x10(%rsp)
  40148e:	8b 44 24 14          	mov    0x14(%rsp),%eax
  401492:	69 c0 da 2b 00 00    	imul   $0x2bda,%eax,%eax
  401498:	89 44 24 14          	mov    %eax,0x14(%rsp)
  40149c:	8b 44 24 24          	mov    0x24(%rsp),%eax
  4014a0:	69 c0 f5 d4 00 00    	imul   $0xd4f5,%eax,%eax
  4014a6:	89 44 24 24          	mov    %eax,0x24(%rsp)
  4014aa:	8b 44 24 18          	mov    0x18(%rsp),%eax
  4014ae:	69 c0 e0 5f 00 00    	imul   $0x5fe0,%eax,%eax
  4014b4:	89 44 24 18          	mov    %eax,0x18(%rsp)
  4014b8:	8b 44 24 18          	mov    0x18(%rsp),%eax
  4014bc:	69 c0 15 e7 00 00    	imul   $0xe715,%eax,%eax
  4014c2:	89 44 24 18          	mov    %eax,0x18(%rsp)
  4014c6:	8b 44 24 18          	mov    0x18(%rsp),%eax
  4014ca:	69 c0 3c a9 00 00    	imul   $0xa93c,%eax,%eax
  4014d0:	89 44 24 18          	mov    %eax,0x18(%rsp)
  4014d4:	8b 44 24 04          	mov    0x4(%rsp),%eax
  4014d8:	69 c0 cf d3 00 00    	imul   $0xd3cf,%eax,%eax
  4014de:	89 44 24 04          	mov    %eax,0x4(%rsp)
  4014e2:	8b 44 24 24          	mov    0x24(%rsp),%eax
  4014e6:	69 c0 28 7e 00 00    	imul   $0x7e28,%eax,%eax
  4014ec:	89 44 24 24          	mov    %eax,0x24(%rsp)
  4014f0:	8b 44 24 18          	mov    0x18(%rsp),%eax
  4014f4:	69 c0 be 32 00 00    	imul   $0x32be,%eax,%eax
  4014fa:	89 44 24 18          	mov    %eax,0x18(%rsp)
  4014fe:	8b 44 24 24          	mov    0x24(%rsp),%eax
  401502:	69 c0 e6 5b 00 00    	imul   $0x5be6,%eax,%eax
  401508:	89 44 24 24          	mov    %eax,0x24(%rsp)
  40150c:	8b 44 24 20          	mov    0x20(%rsp),%eax
  401510:	69 c0 b6 99 00 00    	imul   $0x99b6,%eax,%eax
  401516:	89 44 24 20          	mov    %eax,0x20(%rsp)
  40151a:	8b 44 24 20          	mov    0x20(%rsp),%eax
  40151e:	69 c0 26 89 00 00    	imul   $0x8926,%eax,%eax
  401524:	89 44 24 20          	mov    %eax,0x20(%rsp)
  401528:	8b 44 24 08          	mov    0x8(%rsp),%eax
  40152c:	69 c0 a6 6c 00 00    	imul   $0x6ca6,%eax,%eax
  401532:	89 44 24 08          	mov    %eax,0x8(%rsp)
  401536:	8b 44 24 04          	mov    0x4(%rsp),%eax
  40153a:	69 c0 c5 13 00 00    	imul   $0x13c5,%eax,%eax
  401540:	89 44 24 04          	mov    %eax,0x4(%rsp)
  401544:	8b 44 24 20          	mov    0x20(%rsp),%eax
  401548:	69 c0 c0 26 00 00    	imul   $0x26c0,%eax,%eax
  40154e:	89 44 24 20          	mov    %eax,0x20(%rsp)
  401552:	8b 44 24 20          	mov    0x20(%rsp),%eax
  401556:	69 c0 c1 76 00 00    	imul   $0x76c1,%eax,%eax
  40155c:	89 44 24 20          	mov    %eax,0x20(%rsp)
  401560:	8b 44 24 24          	mov    0x24(%rsp),%eax
  401564:	69 c0 00 d4 00 00    	imul   $0xd400,%eax,%eax
  40156a:	89 44 24 24          	mov    %eax,0x24(%rsp)
  40156e:	8b 44 24 1c          	mov    0x1c(%rsp),%eax
  401572:	69 c0 e3 6a 00 00    	imul   $0x6ae3,%eax,%eax
  401578:	89 44 24 1c          	mov    %eax,0x1c(%rsp)
  40157c:	8b 44 24 18          	mov    0x18(%rsp),%eax
  401580:	69 c0 e7 7d 00 00    	imul   $0x7de7,%eax,%eax
  401586:	89 44 24 18          	mov    %eax,0x18(%rsp)
  40158a:	8b 44 24 08          	mov    0x8(%rsp),%eax
  40158e:	69 c0 b0 6a 00 00    	imul   $0x6ab0,%eax,%eax
  401594:	89 44 24 08          	mov    %eax,0x8(%rsp)
  401598:	8b 44 24 08          	mov    0x8(%rsp),%eax
  40159c:	69 c0 d2 b0 00 00    	imul   $0xb0d2,%eax,%eax
  4015a2:	89 44 24 08          	mov    %eax,0x8(%rsp)
  4015a6:	8b 44 24 24          	mov    0x24(%rsp),%eax
  4015aa:	69 c0 31 f6 00 00    	imul   $0xf631,%eax,%eax
  4015b0:	89 44 24 24          	mov    %eax,0x24(%rsp)
  4015b4:	8b 44 24 0c          	mov    0xc(%rsp),%eax
  4015b8:	69 c0 b0 80 00 00    	imul   $0x80b0,%eax,%eax
  4015be:	89 44 24 0c          	mov    %eax,0xc(%rsp)
  4015c2:	8b 44 24 08          	mov    0x8(%rsp),%eax
  4015c6:	69 c0 a2 54 00 00    	imul   $0x54a2,%eax,%eax
  4015cc:	89 44 24 08          	mov    %eax,0x8(%rsp)
  4015d0:	8b 04 24             	mov    (%rsp),%eax
  4015d3:	69 c0 31 51 00 00    	imul   $0x5131,%eax,%eax
  4015d9:	89 04 24             	mov    %eax,(%rsp)
  4015dc:	8b 44 24 14          	mov    0x14(%rsp),%eax
  4015e0:	69 c0 8a c8 00 00    	imul   $0xc88a,%eax,%eax
  4015e6:	89 44 24 14          	mov    %eax,0x14(%rsp)
  4015ea:	8b 44 24 08          	mov    0x8(%rsp),%eax
  4015ee:	69 c0 7e 32 00 00    	imul   $0x327e,%eax,%eax
  4015f4:	89 44 24 08          	mov    %eax,0x8(%rsp)
  4015f8:	8b 44 24 20          	mov    0x20(%rsp),%eax
  4015fc:	69 c0 38 80 00 00    	imul   $0x8038,%eax,%eax
  401602:	89 44 24 20          	mov    %eax,0x20(%rsp)
  401606:	8b 44 24 24          	mov    0x24(%rsp),%eax
  40160a:	69 c0 4e c0 00 00    	imul   $0xc04e,%eax,%eax
  401610:	89 44 24 24          	mov    %eax,0x24(%rsp)
  401614:	8b 44 24 1c          	mov    0x1c(%rsp),%eax
  401618:	69 c0 36 36 00 00    	imul   $0x3636,%eax,%eax
  40161e:	89 44 24 1c          	mov    %eax,0x1c(%rsp)
  401622:	8b 44 24 24          	mov    0x24(%rsp),%eax
  401626:	69 c0 29 80 00 00    	imul   $0x8029,%eax,%eax
  40162c:	89 44 24 24          	mov    %eax,0x24(%rsp)
  401630:	8b 44 24 10          	mov    0x10(%rsp),%eax
  401634:	69 c0 19 17 00 00    	imul   $0x1719,%eax,%eax
  40163a:	89 44 24 10          	mov    %eax,0x10(%rsp)
  40163e:	8b 44 24 08          	mov    0x8(%rsp),%eax
  401642:	69 c0 93 4f 00 00    	imul   $0x4f93,%eax,%eax
  401648:	89 44 24 08          	mov    %eax,0x8(%rsp)
  40164c:	8b 44 24 08          	mov    0x8(%rsp),%eax
  401650:	69 c0 1f fd 00 00    	imul   $0xfd1f,%eax,%eax
  401656:	89 44 24 08          	mov    %eax,0x8(%rsp)
  40165a:	8b 44 24 14          	mov    0x14(%rsp),%eax
  40165e:	69 c0 c0 4c 00 00    	imul   $0x4cc0,%eax,%eax
  401664:	89 44 24 14          	mov    %eax,0x14(%rsp)
  401668:	8b 44 24 08          	mov    0x8(%rsp),%eax
  40166c:	69 c0 76 32 00 00    	imul   $0x3276,%eax,%eax
  401672:	89 44 24 08          	mov    %eax,0x8(%rsp)
  401676:	8b 44 24 14          	mov    0x14(%rsp),%eax
  40167a:	69 c0 bc 7b 00 00    	imul   $0x7bbc,%eax,%eax
  401680:	89 44 24 14          	mov    %eax,0x14(%rsp)
  401684:	8b 44 24 18          	mov    0x18(%rsp),%eax
  401688:	69 c0 33 82 00 00    	imul   $0x8233,%eax,%eax
  40168e:	89 44 24 18          	mov    %eax,0x18(%rsp)
  401692:	8b 44 24 04          	mov    0x4(%rsp),%eax
  401696:	69 c0 00 9d 00 00    	imul   $0x9d00,%eax,%eax
  40169c:	89 44 24 04          	mov    %eax,0x4(%rsp)
  4016a0:	8b 44 24 04          	mov    0x4(%rsp),%eax
  4016a4:	69 c0 da af 00 00    	imul   $0xafda,%eax,%eax
  4016aa:	89 44 24 04          	mov    %eax,0x4(%rsp)
  4016ae:	8b 44 24 08          	mov    0x8(%rsp),%eax
  4016b2:	69 c0 5d 87 00 00    	imul   $0x875d,%eax,%eax
  4016b8:	89 44 24 08          	mov    %eax,0x8(%rsp)
  4016bc:	8b 44 24 24          	mov    0x24(%rsp),%eax
  4016c0:	69 c0 19 d9 00 00    	imul   $0xd919,%eax,%eax
  4016c6:	89 44 24 24          	mov    %eax,0x24(%rsp)
  4016ca:	8b 44 24 04          	mov    0x4(%rsp),%eax
  4016ce:	69 c0 15 ca 00 00    	imul   $0xca15,%eax,%eax
  4016d4:	89 44 24 04          	mov    %eax,0x4(%rsp)
  4016d8:	8b 44 24 04          	mov    0x4(%rsp),%eax
  4016dc:	69 c0 00 59 00 00    	imul   $0x5900,%eax,%eax
  4016e2:	89 44 24 04          	mov    %eax,0x4(%rsp)
  4016e6:	8b 04 24             	mov    (%rsp),%eax
  4016e9:	69 c0 4e ed 00 00    	imul   $0xed4e,%eax,%eax
  4016ef:	89 04 24             	mov    %eax,(%rsp)
  4016f2:	8b 44 24 10          	mov    0x10(%rsp),%eax
  4016f6:	69 c0 72 71 00 00    	imul   $0x7172,%eax,%eax
  4016fc:	89 44 24 10          	mov    %eax,0x10(%rsp)
  401700:	8b 44 24 24          	mov    0x24(%rsp),%eax
  401704:	69 c0 2d 3c 00 00    	imul   $0x3c2d,%eax,%eax
  40170a:	89 44 24 24          	mov    %eax,0x24(%rsp)
  40170e:	8b 44 24 08          	mov    0x8(%rsp),%eax
  401712:	69 c0 a2 c1 00 00    	imul   $0xc1a2,%eax,%eax
  401718:	89 44 24 08          	mov    %eax,0x8(%rsp)
  40171c:	8b 44 24 24          	mov    0x24(%rsp),%eax
  401720:	69 c0 88 0a 00 00    	imul   $0xa88,%eax,%eax
  401726:	89 44 24 24          	mov    %eax,0x24(%rsp)
  40172a:	8b 44 24 08          	mov    0x8(%rsp),%eax
  40172e:	69 c0 3a 59 00 00    	imul   $0x593a,%eax,%eax
  401734:	89 44 24 08          	mov    %eax,0x8(%rsp)
  401738:	8b 44 24 04          	mov    0x4(%rsp),%eax
  40173c:	69 c0 91 26 00 00    	imul   $0x2691,%eax,%eax
  401742:	89 44 24 04          	mov    %eax,0x4(%rsp)
  401746:	8b 44 24 1c          	mov    0x1c(%rsp),%eax
  40174a:	69 c0 db 54 00 00    	imul   $0x54db,%eax,%eax
  401750:	89 44 24 1c          	mov    %eax,0x1c(%rsp)
  401754:	8b 44 24 20          	mov    0x20(%rsp),%eax
  401758:	69 c0 58 b4 00 00    	imul   $0xb458,%eax,%eax
  40175e:	89 44 24 20          	mov    %eax,0x20(%rsp)
  401762:	8b 44 24 24          	mov    0x24(%rsp),%eax
  401766:	69 c0 b9 9e 00 00    	imul   $0x9eb9,%eax,%eax
  40176c:	89 44 24 24          	mov    %eax,0x24(%rsp)
  401770:	8b 44 24 14          	mov    0x14(%rsp),%eax
  401774:	69 c0 e4 ad 00 00    	imul   $0xade4,%eax,%eax
  40177a:	89 44 24 14          	mov    %eax,0x14(%rsp)
  40177e:	8b 44 24 04          	mov    0x4(%rsp),%eax
  401782:	69 c0 8a 3f 00 00    	imul   $0x3f8a,%eax,%eax
  401788:	89 44 24 04          	mov    %eax,0x4(%rsp)
  40178c:	8b 44 24 04          	mov    0x4(%rsp),%eax
  401790:	69 c0 f8 c6 00 00    	imul   $0xc6f8,%eax,%eax
  401796:	89 44 24 04          	mov    %eax,0x4(%rsp)
  40179a:	8b 44 24 1c          	mov    0x1c(%rsp),%eax
  40179e:	69 c0 1d ef 00 00    	imul   $0xef1d,%eax,%eax
  4017a4:	89 44 24 1c          	mov    %eax,0x1c(%rsp)
  4017a8:	8b 44 24 04          	mov    0x4(%rsp),%eax
  4017ac:	69 c0 f4 71 00 00    	imul   $0x71f4,%eax,%eax
  4017b2:	89 44 24 04          	mov    %eax,0x4(%rsp)
  4017b6:	8b 44 24 24          	mov    0x24(%rsp),%eax
  4017ba:	69 c0 70 1b 00 00    	imul   $0x1b70,%eax,%eax
  4017c0:	89 44 24 24          	mov    %eax,0x24(%rsp)
  4017c4:	8b 44 24 04          	mov    0x4(%rsp),%eax
  4017c8:	69 c0 53 d7 00 00    	imul   $0xd753,%eax,%eax
  4017ce:	89 44 24 04          	mov    %eax,0x4(%rsp)
  4017d2:	8b 44 24 18          	mov    0x18(%rsp),%eax
  4017d6:	69 c0 bb cc 00 00    	imul   $0xccbb,%eax,%eax
  4017dc:	89 44 24 18          	mov    %eax,0x18(%rsp)
  4017e0:	8b 44 24 04          	mov    0x4(%rsp),%eax
  4017e4:	69 c0 6e 15 00 00    	imul   $0x156e,%eax,%eax
  4017ea:	89 44 24 04          	mov    %eax,0x4(%rsp)
  4017ee:	8b 44 24 18          	mov    0x18(%rsp),%eax
  4017f2:	69 c0 41 9f 00 00    	imul   $0x9f41,%eax,%eax
  4017f8:	89 44 24 18          	mov    %eax,0x18(%rsp)
  4017fc:	8b 44 24 1c          	mov    0x1c(%rsp),%eax
  401800:	69 c0 1e 4d 00 00    	imul   $0x4d1e,%eax,%eax
  401806:	89 44 24 1c          	mov    %eax,0x1c(%rsp)
  40180a:	8b 44 24 24          	mov    0x24(%rsp),%eax
  40180e:	69 c0 3f 77 00 00    	imul   $0x773f,%eax,%eax
  401814:	89 44 24 24          	mov    %eax,0x24(%rsp)
  401818:	ba 00 00 00 00       	mov    $0x0,%edx
  40181d:	b8 00 00 00 00       	mov    $0x0,%eax
  401822:	eb 0a                	jmp    40182e <scramble+0x47f>
  401824:	89 d1                	mov    %edx,%ecx
  401826:	8b 0c 8c             	mov    (%rsp,%rcx,4),%ecx
  401829:	01 c8                	add    %ecx,%eax
  40182b:	83 c2 01             	add    $0x1,%edx
  40182e:	83 fa 09             	cmp    $0x9,%edx
  401831:	76 f1                	jbe    401824 <scramble+0x475>
  401833:	48 8b 74 24 28       	mov    0x28(%rsp),%rsi
  401838:	64 48 33 34 25 28 00 	xor    %fs:0x28,%rsi
  40183f:	00 00 
  401841:	74 05                	je     401848 <scramble+0x499>
  401843:	e8 c8 f4 ff ff       	callq  400d10 <__stack_chk_fail@plt>
  401848:	48 83 c4 38          	add    $0x38,%rsp
  40184c:	c3                   	retq   

000000000040184d <getbuf>:
  40184d:	48 83 ec 18          	sub    $0x18,%rsp
  401851:	48 89 e7             	mov    %rsp,%rdi
  401854:	e8 9e 03 00 00       	callq  401bf7 <Gets>
  401859:	b8 01 00 00 00       	mov    $0x1,%eax
  40185e:	48 83 c4 18          	add    $0x18,%rsp
  401862:	c3                   	retq   

0000000000401863 <touch1>:
  401863:	48 83 ec 08          	sub    $0x8,%rsp
  401867:	c7 05 ab 3c 20 00 01 	movl   $0x1,0x203cab(%rip)        # 60551c <vlevel>
  40186e:	00 00 00 
  401871:	bf 66 33 40 00       	mov    $0x403366,%edi
  401876:	e8 75 f4 ff ff       	callq  400cf0 <puts@plt>
  40187b:	bf 01 00 00 00       	mov    $0x1,%edi
  401880:	e8 b7 05 00 00       	callq  401e3c <validate>
  401885:	bf 00 00 00 00       	mov    $0x0,%edi
  40188a:	e8 e1 f5 ff ff       	callq  400e70 <exit@plt>

000000000040188f <touch2>:
  40188f:	48 83 ec 08          	sub    $0x8,%rsp
  401893:	89 fa                	mov    %edi,%edx
  401895:	c7 05 7d 3c 20 00 02 	movl   $0x2,0x203c7d(%rip)        # 60551c <vlevel>
  40189c:	00 00 00 
  40189f:	39 3d 7f 3c 20 00    	cmp    %edi,0x203c7f(%rip)        # 605524 <cookie>
  4018a5:	75 20                	jne    4018c7 <touch2+0x38>
  4018a7:	be 88 33 40 00       	mov    $0x403388,%esi
  4018ac:	bf 01 00 00 00       	mov    $0x1,%edi
  4018b1:	b8 00 00 00 00       	mov    $0x0,%eax
  4018b6:	e8 65 f5 ff ff       	callq  400e20 <__printf_chk@plt>
  4018bb:	bf 02 00 00 00       	mov    $0x2,%edi
  4018c0:	e8 77 05 00 00       	callq  401e3c <validate>
  4018c5:	eb 1e                	jmp    4018e5 <touch2+0x56>
  4018c7:	be b0 33 40 00       	mov    $0x4033b0,%esi
  4018cc:	bf 01 00 00 00       	mov    $0x1,%edi
  4018d1:	b8 00 00 00 00       	mov    $0x0,%eax
  4018d6:	e8 45 f5 ff ff       	callq  400e20 <__printf_chk@plt>
  4018db:	bf 02 00 00 00       	mov    $0x2,%edi
  4018e0:	e8 19 06 00 00       	callq  401efe <fail>
  4018e5:	bf 00 00 00 00       	mov    $0x0,%edi
  4018ea:	e8 81 f5 ff ff       	callq  400e70 <exit@plt>

00000000004018ef <hexmatch>:
  4018ef:	41 54                	push   %r12
  4018f1:	55                   	push   %rbp
  4018f2:	53                   	push   %rbx
  4018f3:	48 83 c4 80          	add    $0xffffffffffffff80,%rsp
  4018f7:	89 fd                	mov    %edi,%ebp
  4018f9:	48 89 f3             	mov    %rsi,%rbx
  4018fc:	64 48 8b 04 25 28 00 	mov    %fs:0x28,%rax
  401903:	00 00 
  401905:	48 89 44 24 78       	mov    %rax,0x78(%rsp)
  40190a:	31 c0                	xor    %eax,%eax
  40190c:	e8 cf f4 ff ff       	callq  400de0 <random@plt>
  401911:	48 89 c1             	mov    %rax,%rcx
  401914:	48 ba 0b d7 a3 70 3d 	movabs $0xa3d70a3d70a3d70b,%rdx
  40191b:	0a d7 a3 
  40191e:	48 f7 ea             	imul   %rdx
  401921:	48 01 ca             	add    %rcx,%rdx
  401924:	48 c1 fa 06          	sar    $0x6,%rdx
  401928:	48 89 c8             	mov    %rcx,%rax
  40192b:	48 c1 f8 3f          	sar    $0x3f,%rax
  40192f:	48 29 c2             	sub    %rax,%rdx
  401932:	48 8d 04 92          	lea    (%rdx,%rdx,4),%rax
  401936:	48 8d 14 80          	lea    (%rax,%rax,4),%rdx
  40193a:	48 8d 04 95 00 00 00 	lea    0x0(,%rdx,4),%rax
  401941:	00 
  401942:	48 29 c1             	sub    %rax,%rcx
  401945:	4c 8d 24 0c          	lea    (%rsp,%rcx,1),%r12
  401949:	41 89 e8             	mov    %ebp,%r8d
  40194c:	b9 83 33 40 00       	mov    $0x403383,%ecx
  401951:	48 c7 c2 ff ff ff ff 	mov    $0xffffffffffffffff,%rdx
  401958:	be 01 00 00 00       	mov    $0x1,%esi
  40195d:	4c 89 e7             	mov    %r12,%rdi
  401960:	b8 00 00 00 00       	mov    $0x0,%eax
  401965:	e8 36 f5 ff ff       	callq  400ea0 <__sprintf_chk@plt>
  40196a:	ba 09 00 00 00       	mov    $0x9,%edx
  40196f:	4c 89 e6             	mov    %r12,%rsi
  401972:	48 89 df             	mov    %rbx,%rdi
  401975:	e8 56 f3 ff ff       	callq  400cd0 <strncmp@plt>
  40197a:	85 c0                	test   %eax,%eax
  40197c:	0f 94 c0             	sete   %al
  40197f:	48 8b 5c 24 78       	mov    0x78(%rsp),%rbx
  401984:	64 48 33 1c 25 28 00 	xor    %fs:0x28,%rbx
  40198b:	00 00 
  40198d:	74 05                	je     401994 <hexmatch+0xa5>
  40198f:	e8 7c f3 ff ff       	callq  400d10 <__stack_chk_fail@plt>
  401994:	0f b6 c0             	movzbl %al,%eax
  401997:	48 83 ec 80          	sub    $0xffffffffffffff80,%rsp
  40199b:	5b                   	pop    %rbx
  40199c:	5d                   	pop    %rbp
  40199d:	41 5c                	pop    %r12
  40199f:	c3                   	retq   

00000000004019a0 <touch3>:
  4019a0:	53                   	push   %rbx
  4019a1:	48 89 fb             	mov    %rdi,%rbx
  4019a4:	c7 05 6e 3b 20 00 03 	movl   $0x3,0x203b6e(%rip)        # 60551c <vlevel>
  4019ab:	00 00 00 
  4019ae:	48 89 fe             	mov    %rdi,%rsi
  4019b1:	8b 3d 6d 3b 20 00    	mov    0x203b6d(%rip),%edi        # 605524 <cookie>
  4019b7:	e8 33 ff ff ff       	callq  4018ef <hexmatch>
  4019bc:	85 c0                	test   %eax,%eax
  4019be:	74 23                	je     4019e3 <touch3+0x43>
  4019c0:	48 89 da             	mov    %rbx,%rdx
  4019c3:	be d8 33 40 00       	mov    $0x4033d8,%esi
  4019c8:	bf 01 00 00 00       	mov    $0x1,%edi
  4019cd:	b8 00 00 00 00       	mov    $0x0,%eax
  4019d2:	e8 49 f4 ff ff       	callq  400e20 <__printf_chk@plt>
  4019d7:	bf 03 00 00 00       	mov    $0x3,%edi
  4019dc:	e8 5b 04 00 00       	callq  401e3c <validate>
  4019e1:	eb 21                	jmp    401a04 <touch3+0x64>
  4019e3:	48 89 da             	mov    %rbx,%rdx
  4019e6:	be 00 34 40 00       	mov    $0x403400,%esi
  4019eb:	bf 01 00 00 00       	mov    $0x1,%edi
  4019f0:	b8 00 00 00 00       	mov    $0x0,%eax
  4019f5:	e8 26 f4 ff ff       	callq  400e20 <__printf_chk@plt>
  4019fa:	bf 03 00 00 00       	mov    $0x3,%edi
  4019ff:	e8 fa 04 00 00       	callq  401efe <fail>
  401a04:	bf 00 00 00 00       	mov    $0x0,%edi
  401a09:	e8 62 f4 ff ff       	callq  400e70 <exit@plt>

0000000000401a0e <test>:
  401a0e:	48 83 ec 08          	sub    $0x8,%rsp
  401a12:	b8 00 00 00 00       	mov    $0x0,%eax
  401a17:	e8 31 fe ff ff       	callq  40184d <getbuf>
  401a1c:	89 c2                	mov    %eax,%edx
  401a1e:	be 28 34 40 00       	mov    $0x403428,%esi
  401a23:	bf 01 00 00 00       	mov    $0x1,%edi
  401a28:	b8 00 00 00 00       	mov    $0x0,%eax
  401a2d:	e8 ee f3 ff ff       	callq  400e20 <__printf_chk@plt>
  401a32:	48 83 c4 08          	add    $0x8,%rsp
  401a36:	c3                   	retq   

0000000000401a37 <start_farm>:
  401a37:	b8 01 00 00 00       	mov    $0x1,%eax
  401a3c:	c3                   	retq   

0000000000401a3d <addval_283>:
  401a3d:	8d 87 eb 58 90 90    	lea    -0x6f6fa715(%rdi),%eax
  401a43:	c3                   	retq   

0000000000401a44 <addval_428>:
  401a44:	8d 87 48 89 c7 c3    	lea    -0x3c3876b8(%rdi),%eax
  401a4a:	c3                   	retq   

0000000000401a4b <addval_138>:
  401a4b:	8d 87 49 48 8b c7    	lea    -0x3874b7b7(%rdi),%eax
  401a51:	c3                   	retq   

0000000000401a52 <getval_106>:
  401a52:	b8 58 90 c3 5c       	mov    $0x5cc39058,%eax
  401a57:	c3                   	retq   

0000000000401a58 <addval_218>:
  401a58:	8d 87 c9 fd d8 90    	lea    -0x6f270237(%rdi),%eax
  401a5e:	c3                   	retq   

0000000000401a5f <getval_195>:
  401a5f:	b8 ee 6c 78 90       	mov    $0x90786cee,%eax
  401a64:	c3                   	retq   

0000000000401a65 <addval_496>:
  401a65:	8d 87 48 89 c7 94    	lea    -0x6b3876b8(%rdi),%eax
  401a6b:	c3                   	retq   

0000000000401a6c <addval_231>:
  401a6c:	8d 87 48 89 c7 90    	lea    -0x6f3876b8(%rdi),%eax
  401a72:	c3                   	retq   

0000000000401a73 <mid_farm>:
  401a73:	b8 01 00 00 00       	mov    $0x1,%eax
  401a78:	c3                   	retq   

0000000000401a79 <add_xy>:
  401a79:	48 8d 04 37          	lea    (%rdi,%rsi,1),%rax
  401a7d:	c3                   	retq   

0000000000401a7e <getval_265>:
  401a7e:	b8 48 89 e0 92       	mov    $0x92e08948,%eax
  401a83:	c3                   	retq   

0000000000401a84 <getval_433>:
  401a84:	b8 89 c2 78 d2       	mov    $0xd278c289,%eax
  401a89:	c3                   	retq   

0000000000401a8a <setval_493>:
  401a8a:	c7 07 30 89 d1 90    	movl   $0x90d18930,(%rdi)
  401a90:	c3                   	retq   

0000000000401a91 <addval_379>:
  401a91:	8d 87 89 d1 60 db    	lea    -0x249f2e77(%rdi),%eax
  401a97:	c3                   	retq   

0000000000401a98 <setval_380>:
  401a98:	c7 07 89 ce 94 c0    	movl   $0xc094ce89,(%rdi)
  401a9e:	c3                   	retq   

0000000000401a9f <addval_393>:
  401a9f:	8d 87 48 89 e0 c2    	lea    -0x3d1f76b8(%rdi),%eax
  401aa5:	c3                   	retq   

0000000000401aa6 <setval_410>:
  401aa6:	c7 07 89 ce 78 d2    	movl   $0xd278ce89,(%rdi)
  401aac:	c3                   	retq   

0000000000401aad <setval_267>:
  401aad:	c7 07 89 c2 78 db    	movl   $0xdb78c289,(%rdi)
  401ab3:	c3                   	retq   

0000000000401ab4 <setval_352>:
  401ab4:	c7 07 a9 ce 90 90    	movl   $0x9090cea9,(%rdi)
  401aba:	c3                   	retq   

0000000000401abb <setval_345>:
  401abb:	c7 07 89 c2 28 db    	movl   $0xdb28c289,(%rdi)
  401ac1:	c3                   	retq   

0000000000401ac2 <getval_239>:
  401ac2:	b8 89 ce 90 c3       	mov    $0xc390ce89,%eax
  401ac7:	c3                   	retq   

0000000000401ac8 <getval_342>:
  401ac8:	b8 96 48 89 e0       	mov    $0xe0894896,%eax
  401acd:	c3                   	retq   

0000000000401ace <addval_338>:
  401ace:	8d 87 48 89 e0 90    	lea    -0x6f1f76b8(%rdi),%eax
  401ad4:	c3                   	retq   

0000000000401ad5 <getval_408>:
  401ad5:	b8 8d d1 08 db       	mov    $0xdb08d18d,%eax
  401ada:	c3                   	retq   

0000000000401adb <setval_254>:
  401adb:	c7 07 89 ce c1 ab    	movl   $0xabc1ce89,(%rdi)
  401ae1:	c3                   	retq   

0000000000401ae2 <getval_452>:
  401ae2:	b8 89 d1 48 db       	mov    $0xdb48d189,%eax
  401ae7:	c3                   	retq   

0000000000401ae8 <setval_294>:
  401ae8:	c7 07 88 ce 20 c0    	movl   $0xc020ce88,(%rdi)
  401aee:	c3                   	retq   

0000000000401aef <getval_391>:
  401aef:	b8 48 88 e0 c3       	mov    $0xc3e08848,%eax
  401af4:	c3                   	retq   

0000000000401af5 <getval_407>:
  401af5:	b8 82 48 c9 e0       	mov    $0xe0c94882,%eax
  401afa:	c3                   	retq   

0000000000401afb <addval_442>:
  401afb:	8d 87 89 d1 18 c9    	lea    -0x36e72e77(%rdi),%eax
  401b01:	c3                   	retq   

0000000000401b02 <setval_160>:
  401b02:	c7 07 89 c2 38 c9    	movl   $0xc938c289,(%rdi)
  401b08:	c3                   	retq   

0000000000401b09 <getval_217>:
  401b09:	b8 89 c2 90 90       	mov    $0x9090c289,%eax
  401b0e:	c3                   	retq   

0000000000401b0f <getval_333>:
  401b0f:	b8 89 d1 84 c0       	mov    $0xc084d189,%eax
  401b14:	c3                   	retq   

0000000000401b15 <setval_320>:
  401b15:	c7 07 89 d1 c1 d8    	movl   $0xd8c1d189,(%rdi)
  401b1b:	c3                   	retq   

0000000000401b1c <setval_370>:
  401b1c:	c7 07 48 89 e0 c1    	movl   $0xc1e08948,(%rdi)
  401b22:	c3                   	retq   

0000000000401b23 <setval_258>:
  401b23:	c7 07 48 89 e0 c1    	movl   $0xc1e08948,(%rdi)
  401b29:	c3                   	retq   

0000000000401b2a <setval_133>:
  401b2a:	c7 07 89 d1 78 db    	movl   $0xdb78d189,(%rdi)
  401b30:	c3                   	retq   

0000000000401b31 <getval_212>:
  401b31:	b8 96 09 c2 90       	mov    $0x90c20996,%eax
  401b36:	c3                   	retq   

0000000000401b37 <addval_332>:
  401b37:	8d 87 89 c2 94 90    	lea    -0x6f6b3d77(%rdi),%eax
  401b3d:	c3                   	retq   

0000000000401b3e <getval_302>:
  401b3e:	b8 a5 19 09 c2       	mov    $0xc20919a5,%eax
  401b43:	c3                   	retq   

0000000000401b44 <setval_497>:
  401b44:	c7 07 0e 89 ce c3    	movl   $0xc3ce890e,(%rdi)
  401b4a:	c3                   	retq   

0000000000401b4b <getval_108>:
  401b4b:	b8 89 ce 78 c9       	mov    $0xc978ce89,%eax
  401b50:	c3                   	retq   

0000000000401b51 <end_farm>:
  401b51:	b8 01 00 00 00       	mov    $0x1,%eax
  401b56:	c3                   	retq   

0000000000401b57 <save_char>:
  401b57:	8b 05 e7 45 20 00    	mov    0x2045e7(%rip),%eax        # 606144 <gets_cnt>
  401b5d:	3d ff 03 00 00       	cmp    $0x3ff,%eax
  401b62:	7f 49                	jg     401bad <save_char+0x56>
  401b64:	8d 14 40             	lea    (%rax,%rax,2),%edx
  401b67:	89 f9                	mov    %edi,%ecx
  401b69:	c0 e9 04             	shr    $0x4,%cl
  401b6c:	83 e1 0f             	and    $0xf,%ecx
  401b6f:	0f b6 b1 50 37 40 00 	movzbl 0x403750(%rcx),%esi
  401b76:	48 63 ca             	movslq %edx,%rcx
  401b79:	40 88 b1 40 55 60 00 	mov    %sil,0x605540(%rcx)
  401b80:	8d 4a 01             	lea    0x1(%rdx),%ecx
  401b83:	83 e7 0f             	and    $0xf,%edi
  401b86:	0f b6 b7 50 37 40 00 	movzbl 0x403750(%rdi),%esi
  401b8d:	48 63 c9             	movslq %ecx,%rcx
  401b90:	40 88 b1 40 55 60 00 	mov    %sil,0x605540(%rcx)
  401b97:	83 c2 02             	add    $0x2,%edx
  401b9a:	48 63 d2             	movslq %edx,%rdx
  401b9d:	c6 82 40 55 60 00 20 	movb   $0x20,0x605540(%rdx)
  401ba4:	83 c0 01             	add    $0x1,%eax
  401ba7:	89 05 97 45 20 00    	mov    %eax,0x204597(%rip)        # 606144 <gets_cnt>
  401bad:	f3 c3                	repz retq 

0000000000401baf <save_term>:
  401baf:	8b 05 8f 45 20 00    	mov    0x20458f(%rip),%eax        # 606144 <gets_cnt>
  401bb5:	8d 04 40             	lea    (%rax,%rax,2),%eax
  401bb8:	48 98                	cltq   
  401bba:	c6 80 40 55 60 00 00 	movb   $0x0,0x605540(%rax)
  401bc1:	c3                   	retq   

0000000000401bc2 <check_fail>:
  401bc2:	48 83 ec 08          	sub    $0x8,%rsp
  401bc6:	0f be 15 7b 45 20 00 	movsbl 0x20457b(%rip),%edx        # 606148 <target_prefix>
  401bcd:	41 b8 40 55 60 00    	mov    $0x605540,%r8d
  401bd3:	8b 0d 3f 39 20 00    	mov    0x20393f(%rip),%ecx        # 605518 <check_level>
  401bd9:	be 4b 34 40 00       	mov    $0x40344b,%esi
  401bde:	bf 01 00 00 00       	mov    $0x1,%edi
  401be3:	b8 00 00 00 00       	mov    $0x0,%eax
  401be8:	e8 33 f2 ff ff       	callq  400e20 <__printf_chk@plt>
  401bed:	bf 01 00 00 00       	mov    $0x1,%edi
  401bf2:	e8 79 f2 ff ff       	callq  400e70 <exit@plt>

0000000000401bf7 <Gets>:
  401bf7:	41 54                	push   %r12
  401bf9:	55                   	push   %rbp
  401bfa:	53                   	push   %rbx
  401bfb:	49 89 fc             	mov    %rdi,%r12
  401bfe:	c7 05 3c 45 20 00 00 	movl   $0x0,0x20453c(%rip)        # 606144 <gets_cnt>
  401c05:	00 00 00 
  401c08:	48 89 fb             	mov    %rdi,%rbx
  401c0b:	eb 11                	jmp    401c1e <Gets+0x27>
  401c0d:	48 8d 6b 01          	lea    0x1(%rbx),%rbp
  401c11:	88 03                	mov    %al,(%rbx)
  401c13:	0f b6 f8             	movzbl %al,%edi
  401c16:	e8 3c ff ff ff       	callq  401b57 <save_char>
  401c1b:	48 89 eb             	mov    %rbp,%rbx
  401c1e:	48 8b 3d eb 38 20 00 	mov    0x2038eb(%rip),%rdi        # 605510 <infile>
  401c25:	e8 c6 f1 ff ff       	callq  400df0 <_IO_getc@plt>
  401c2a:	83 f8 ff             	cmp    $0xffffffff,%eax
  401c2d:	74 05                	je     401c34 <Gets+0x3d>
  401c2f:	83 f8 0a             	cmp    $0xa,%eax
  401c32:	75 d9                	jne    401c0d <Gets+0x16>
  401c34:	c6 03 00             	movb   $0x0,(%rbx)
  401c37:	b8 00 00 00 00       	mov    $0x0,%eax
  401c3c:	e8 6e ff ff ff       	callq  401baf <save_term>
  401c41:	4c 89 e0             	mov    %r12,%rax
  401c44:	5b                   	pop    %rbx
  401c45:	5d                   	pop    %rbp
  401c46:	41 5c                	pop    %r12
  401c48:	c3                   	retq   

0000000000401c49 <notify_server>:
  401c49:	53                   	push   %rbx
  401c4a:	48 81 ec 10 40 00 00 	sub    $0x4010,%rsp
  401c51:	64 48 8b 04 25 28 00 	mov    %fs:0x28,%rax
  401c58:	00 00 
  401c5a:	48 89 84 24 08 40 00 	mov    %rax,0x4008(%rsp)
  401c61:	00 
  401c62:	31 c0                	xor    %eax,%eax
  401c64:	83 3d bd 38 20 00 00 	cmpl   $0x0,0x2038bd(%rip)        # 605528 <is_checker>
  401c6b:	0f 85 aa 01 00 00    	jne    401e1b <notify_server+0x1d2>
  401c71:	89 fb                	mov    %edi,%ebx
  401c73:	8b 05 cb 44 20 00    	mov    0x2044cb(%rip),%eax        # 606144 <gets_cnt>
  401c79:	83 c0 64             	add    $0x64,%eax
  401c7c:	3d 00 20 00 00       	cmp    $0x2000,%eax
  401c81:	7e 1e                	jle    401ca1 <notify_server+0x58>
  401c83:	be 80 35 40 00       	mov    $0x403580,%esi
  401c88:	bf 01 00 00 00       	mov    $0x1,%edi
  401c8d:	b8 00 00 00 00       	mov    $0x0,%eax
  401c92:	e8 89 f1 ff ff       	callq  400e20 <__printf_chk@plt>
  401c97:	bf 01 00 00 00       	mov    $0x1,%edi
  401c9c:	e8 cf f1 ff ff       	callq  400e70 <exit@plt>
  401ca1:	0f be 05 a0 44 20 00 	movsbl 0x2044a0(%rip),%eax        # 606148 <target_prefix>
  401ca8:	83 3d f9 37 20 00 00 	cmpl   $0x0,0x2037f9(%rip)        # 6054a8 <notify>
  401caf:	74 08                	je     401cb9 <notify_server+0x70>
  401cb1:	8b 15 69 38 20 00    	mov    0x203869(%rip),%edx        # 605520 <authkey>
  401cb7:	eb 05                	jmp    401cbe <notify_server+0x75>
  401cb9:	ba ff ff ff ff       	mov    $0xffffffff,%edx
  401cbe:	85 db                	test   %ebx,%ebx
  401cc0:	74 08                	je     401cca <notify_server+0x81>
  401cc2:	41 b9 61 34 40 00    	mov    $0x403461,%r9d
  401cc8:	eb 06                	jmp    401cd0 <notify_server+0x87>
  401cca:	41 b9 66 34 40 00    	mov    $0x403466,%r9d
  401cd0:	68 40 55 60 00       	pushq  $0x605540
  401cd5:	56                   	push   %rsi
  401cd6:	50                   	push   %rax
  401cd7:	52                   	push   %rdx
  401cd8:	44 8b 05 89 34 20 00 	mov    0x203489(%rip),%r8d        # 605168 <target_id>
  401cdf:	b9 6b 34 40 00       	mov    $0x40346b,%ecx
  401ce4:	ba 00 20 00 00       	mov    $0x2000,%edx
  401ce9:	be 01 00 00 00       	mov    $0x1,%esi
  401cee:	48 8d 7c 24 20       	lea    0x20(%rsp),%rdi
  401cf3:	b8 00 00 00 00       	mov    $0x0,%eax
  401cf8:	e8 a3 f1 ff ff       	callq  400ea0 <__sprintf_chk@plt>
  401cfd:	48 83 c4 20          	add    $0x20,%rsp
  401d01:	83 3d a0 37 20 00 00 	cmpl   $0x0,0x2037a0(%rip)        # 6054a8 <notify>
  401d08:	0f 84 81 00 00 00    	je     401d8f <notify_server+0x146>
  401d0e:	4c 8d 8c 24 00 20 00 	lea    0x2000(%rsp),%r9
  401d15:	00 
  401d16:	41 b8 00 00 00 00    	mov    $0x0,%r8d
  401d1c:	48 89 e1             	mov    %rsp,%rcx
  401d1f:	48 8b 15 4a 34 20 00 	mov    0x20344a(%rip),%rdx        # 605170 <lab>
  401d26:	48 8b 35 4b 34 20 00 	mov    0x20344b(%rip),%rsi        # 605178 <course>
  401d2d:	48 8b 3d 2c 34 20 00 	mov    0x20342c(%rip),%rdi        # 605160 <user_id>
  401d34:	e8 0e 11 00 00       	callq  402e47 <driver_post>
  401d39:	85 c0                	test   %eax,%eax
  401d3b:	79 26                	jns    401d63 <notify_server+0x11a>
  401d3d:	48 8d 94 24 00 20 00 	lea    0x2000(%rsp),%rdx
  401d44:	00 
  401d45:	be 87 34 40 00       	mov    $0x403487,%esi
  401d4a:	bf 01 00 00 00       	mov    $0x1,%edi
  401d4f:	b8 00 00 00 00       	mov    $0x0,%eax
  401d54:	e8 c7 f0 ff ff       	callq  400e20 <__printf_chk@plt>
  401d59:	bf 01 00 00 00       	mov    $0x1,%edi
  401d5e:	e8 0d f1 ff ff       	callq  400e70 <exit@plt>
  401d63:	85 db                	test   %ebx,%ebx
  401d65:	74 19                	je     401d80 <notify_server+0x137>
  401d67:	bf b0 35 40 00       	mov    $0x4035b0,%edi
  401d6c:	e8 7f ef ff ff       	callq  400cf0 <puts@plt>
  401d71:	bf 93 34 40 00       	mov    $0x403493,%edi
  401d76:	e8 75 ef ff ff       	callq  400cf0 <puts@plt>
  401d7b:	e9 9b 00 00 00       	jmpq   401e1b <notify_server+0x1d2>
  401d80:	bf 9d 34 40 00       	mov    $0x40349d,%edi
  401d85:	e8 66 ef ff ff       	callq  400cf0 <puts@plt>
  401d8a:	e9 8c 00 00 00       	jmpq   401e1b <notify_server+0x1d2>
  401d8f:	85 db                	test   %ebx,%ebx
  401d91:	74 07                	je     401d9a <notify_server+0x151>
  401d93:	ba 61 34 40 00       	mov    $0x403461,%edx
  401d98:	eb 05                	jmp    401d9f <notify_server+0x156>
  401d9a:	ba 66 34 40 00       	mov    $0x403466,%edx
  401d9f:	be e8 35 40 00       	mov    $0x4035e8,%esi
  401da4:	bf 01 00 00 00       	mov    $0x1,%edi
  401da9:	b8 00 00 00 00       	mov    $0x0,%eax
  401dae:	e8 6d f0 ff ff       	callq  400e20 <__printf_chk@plt>
  401db3:	48 8b 15 a6 33 20 00 	mov    0x2033a6(%rip),%rdx        # 605160 <user_id>
  401dba:	be a4 34 40 00       	mov    $0x4034a4,%esi
  401dbf:	bf 01 00 00 00       	mov    $0x1,%edi
  401dc4:	b8 00 00 00 00       	mov    $0x0,%eax
  401dc9:	e8 52 f0 ff ff       	callq  400e20 <__printf_chk@plt>
  401dce:	48 8b 15 a3 33 20 00 	mov    0x2033a3(%rip),%rdx        # 605178 <course>
  401dd5:	be b1 34 40 00       	mov    $0x4034b1,%esi
  401dda:	bf 01 00 00 00       	mov    $0x1,%edi
  401ddf:	b8 00 00 00 00       	mov    $0x0,%eax
  401de4:	e8 37 f0 ff ff       	callq  400e20 <__printf_chk@plt>
  401de9:	48 8b 15 80 33 20 00 	mov    0x203380(%rip),%rdx        # 605170 <lab>
  401df0:	be bd 34 40 00       	mov    $0x4034bd,%esi
  401df5:	bf 01 00 00 00       	mov    $0x1,%edi
  401dfa:	b8 00 00 00 00       	mov    $0x0,%eax
  401dff:	e8 1c f0 ff ff       	callq  400e20 <__printf_chk@plt>
  401e04:	48 89 e2             	mov    %rsp,%rdx
  401e07:	be c6 34 40 00       	mov    $0x4034c6,%esi
  401e0c:	bf 01 00 00 00       	mov    $0x1,%edi
  401e11:	b8 00 00 00 00       	mov    $0x0,%eax
  401e16:	e8 05 f0 ff ff       	callq  400e20 <__printf_chk@plt>
  401e1b:	48 8b 84 24 08 40 00 	mov    0x4008(%rsp),%rax
  401e22:	00 
  401e23:	64 48 33 04 25 28 00 	xor    %fs:0x28,%rax
  401e2a:	00 00 
  401e2c:	74 05                	je     401e33 <notify_server+0x1ea>
  401e2e:	e8 dd ee ff ff       	callq  400d10 <__stack_chk_fail@plt>
  401e33:	48 81 c4 10 40 00 00 	add    $0x4010,%rsp
  401e3a:	5b                   	pop    %rbx
  401e3b:	c3                   	retq   

0000000000401e3c <validate>:
  401e3c:	53                   	push   %rbx
  401e3d:	89 fb                	mov    %edi,%ebx
  401e3f:	83 3d e2 36 20 00 00 	cmpl   $0x0,0x2036e2(%rip)        # 605528 <is_checker>
  401e46:	74 6b                	je     401eb3 <validate+0x77>
  401e48:	39 3d ce 36 20 00    	cmp    %edi,0x2036ce(%rip)        # 60551c <vlevel>
  401e4e:	74 14                	je     401e64 <validate+0x28>
  401e50:	bf d2 34 40 00       	mov    $0x4034d2,%edi
  401e55:	e8 96 ee ff ff       	callq  400cf0 <puts@plt>
  401e5a:	b8 00 00 00 00       	mov    $0x0,%eax
  401e5f:	e8 5e fd ff ff       	callq  401bc2 <check_fail>
  401e64:	8b 15 ae 36 20 00    	mov    0x2036ae(%rip),%edx        # 605518 <check_level>
  401e6a:	39 d7                	cmp    %edx,%edi
  401e6c:	74 20                	je     401e8e <validate+0x52>
  401e6e:	89 f9                	mov    %edi,%ecx
  401e70:	be 10 36 40 00       	mov    $0x403610,%esi
  401e75:	bf 01 00 00 00       	mov    $0x1,%edi
  401e7a:	b8 00 00 00 00       	mov    $0x0,%eax
  401e7f:	e8 9c ef ff ff       	callq  400e20 <__printf_chk@plt>
  401e84:	b8 00 00 00 00       	mov    $0x0,%eax
  401e89:	e8 34 fd ff ff       	callq  401bc2 <check_fail>
  401e8e:	0f be 15 b3 42 20 00 	movsbl 0x2042b3(%rip),%edx        # 606148 <target_prefix>
  401e95:	41 b8 40 55 60 00    	mov    $0x605540,%r8d
  401e9b:	89 f9                	mov    %edi,%ecx
  401e9d:	be f0 34 40 00       	mov    $0x4034f0,%esi
  401ea2:	bf 01 00 00 00       	mov    $0x1,%edi
  401ea7:	b8 00 00 00 00       	mov    $0x0,%eax
  401eac:	e8 6f ef ff ff       	callq  400e20 <__printf_chk@plt>
  401eb1:	eb 49                	jmp    401efc <validate+0xc0>
  401eb3:	3b 3d 63 36 20 00    	cmp    0x203663(%rip),%edi        # 60551c <vlevel>
  401eb9:	74 18                	je     401ed3 <validate+0x97>
  401ebb:	bf d2 34 40 00       	mov    $0x4034d2,%edi
  401ec0:	e8 2b ee ff ff       	callq  400cf0 <puts@plt>
  401ec5:	89 de                	mov    %ebx,%esi
  401ec7:	bf 00 00 00 00       	mov    $0x0,%edi
  401ecc:	e8 78 fd ff ff       	callq  401c49 <notify_server>
  401ed1:	eb 29                	jmp    401efc <validate+0xc0>
  401ed3:	0f be 0d 6e 42 20 00 	movsbl 0x20426e(%rip),%ecx        # 606148 <target_prefix>
  401eda:	89 fa                	mov    %edi,%edx
  401edc:	be 38 36 40 00       	mov    $0x403638,%esi
  401ee1:	bf 01 00 00 00       	mov    $0x1,%edi
  401ee6:	b8 00 00 00 00       	mov    $0x0,%eax
  401eeb:	e8 30 ef ff ff       	callq  400e20 <__printf_chk@plt>
  401ef0:	89 de                	mov    %ebx,%esi
  401ef2:	bf 01 00 00 00       	mov    $0x1,%edi
  401ef7:	e8 4d fd ff ff       	callq  401c49 <notify_server>
  401efc:	5b                   	pop    %rbx
  401efd:	c3                   	retq   

0000000000401efe <fail>:
  401efe:	48 83 ec 08          	sub    $0x8,%rsp
  401f02:	83 3d 1f 36 20 00 00 	cmpl   $0x0,0x20361f(%rip)        # 605528 <is_checker>
  401f09:	74 0a                	je     401f15 <fail+0x17>
  401f0b:	b8 00 00 00 00       	mov    $0x0,%eax
  401f10:	e8 ad fc ff ff       	callq  401bc2 <check_fail>
  401f15:	89 fe                	mov    %edi,%esi
  401f17:	bf 00 00 00 00       	mov    $0x0,%edi
  401f1c:	e8 28 fd ff ff       	callq  401c49 <notify_server>
  401f21:	48 83 c4 08          	add    $0x8,%rsp
  401f25:	c3                   	retq   

0000000000401f26 <bushandler>:
  401f26:	48 83 ec 08          	sub    $0x8,%rsp
  401f2a:	83 3d f7 35 20 00 00 	cmpl   $0x0,0x2035f7(%rip)        # 605528 <is_checker>
  401f31:	74 14                	je     401f47 <bushandler+0x21>
  401f33:	bf 05 35 40 00       	mov    $0x403505,%edi
  401f38:	e8 b3 ed ff ff       	callq  400cf0 <puts@plt>
  401f3d:	b8 00 00 00 00       	mov    $0x0,%eax
  401f42:	e8 7b fc ff ff       	callq  401bc2 <check_fail>
  401f47:	bf 70 36 40 00       	mov    $0x403670,%edi
  401f4c:	e8 9f ed ff ff       	callq  400cf0 <puts@plt>
  401f51:	bf 0f 35 40 00       	mov    $0x40350f,%edi
  401f56:	e8 95 ed ff ff       	callq  400cf0 <puts@plt>
  401f5b:	be 00 00 00 00       	mov    $0x0,%esi
  401f60:	bf 00 00 00 00       	mov    $0x0,%edi
  401f65:	e8 df fc ff ff       	callq  401c49 <notify_server>
  401f6a:	bf 01 00 00 00       	mov    $0x1,%edi
  401f6f:	e8 fc ee ff ff       	callq  400e70 <exit@plt>

0000000000401f74 <seghandler>:
  401f74:	48 83 ec 08          	sub    $0x8,%rsp
  401f78:	83 3d a9 35 20 00 00 	cmpl   $0x0,0x2035a9(%rip)        # 605528 <is_checker>
  401f7f:	74 14                	je     401f95 <seghandler+0x21>
  401f81:	bf 25 35 40 00       	mov    $0x403525,%edi
  401f86:	e8 65 ed ff ff       	callq  400cf0 <puts@plt>
  401f8b:	b8 00 00 00 00       	mov    $0x0,%eax
  401f90:	e8 2d fc ff ff       	callq  401bc2 <check_fail>
  401f95:	bf 90 36 40 00       	mov    $0x403690,%edi
  401f9a:	e8 51 ed ff ff       	callq  400cf0 <puts@plt>
  401f9f:	bf 0f 35 40 00       	mov    $0x40350f,%edi
  401fa4:	e8 47 ed ff ff       	callq  400cf0 <puts@plt>
  401fa9:	be 00 00 00 00       	mov    $0x0,%esi
  401fae:	bf 00 00 00 00       	mov    $0x0,%edi
  401fb3:	e8 91 fc ff ff       	callq  401c49 <notify_server>
  401fb8:	bf 01 00 00 00       	mov    $0x1,%edi
  401fbd:	e8 ae ee ff ff       	callq  400e70 <exit@plt>

0000000000401fc2 <illegalhandler>:
  401fc2:	48 83 ec 08          	sub    $0x8,%rsp
  401fc6:	83 3d 5b 35 20 00 00 	cmpl   $0x0,0x20355b(%rip)        # 605528 <is_checker>
  401fcd:	74 14                	je     401fe3 <illegalhandler+0x21>
  401fcf:	bf 38 35 40 00       	mov    $0x403538,%edi
  401fd4:	e8 17 ed ff ff       	callq  400cf0 <puts@plt>
  401fd9:	b8 00 00 00 00       	mov    $0x0,%eax
  401fde:	e8 df fb ff ff       	callq  401bc2 <check_fail>
  401fe3:	bf b8 36 40 00       	mov    $0x4036b8,%edi
  401fe8:	e8 03 ed ff ff       	callq  400cf0 <puts@plt>
  401fed:	bf 0f 35 40 00       	mov    $0x40350f,%edi
  401ff2:	e8 f9 ec ff ff       	callq  400cf0 <puts@plt>
  401ff7:	be 00 00 00 00       	mov    $0x0,%esi
  401ffc:	bf 00 00 00 00       	mov    $0x0,%edi
  402001:	e8 43 fc ff ff       	callq  401c49 <notify_server>
  402006:	bf 01 00 00 00       	mov    $0x1,%edi
  40200b:	e8 60 ee ff ff       	callq  400e70 <exit@plt>

0000000000402010 <sigalrmhandler>:
  402010:	48 83 ec 08          	sub    $0x8,%rsp
  402014:	83 3d 0d 35 20 00 00 	cmpl   $0x0,0x20350d(%rip)        # 605528 <is_checker>
  40201b:	74 14                	je     402031 <sigalrmhandler+0x21>
  40201d:	bf 4c 35 40 00       	mov    $0x40354c,%edi
  402022:	e8 c9 ec ff ff       	callq  400cf0 <puts@plt>
  402027:	b8 00 00 00 00       	mov    $0x0,%eax
  40202c:	e8 91 fb ff ff       	callq  401bc2 <check_fail>
  402031:	ba 05 00 00 00       	mov    $0x5,%edx
  402036:	be e8 36 40 00       	mov    $0x4036e8,%esi
  40203b:	bf 01 00 00 00       	mov    $0x1,%edi
  402040:	b8 00 00 00 00       	mov    $0x0,%eax
  402045:	e8 d6 ed ff ff       	callq  400e20 <__printf_chk@plt>
  40204a:	be 00 00 00 00       	mov    $0x0,%esi
  40204f:	bf 00 00 00 00       	mov    $0x0,%edi
  402054:	e8 f0 fb ff ff       	callq  401c49 <notify_server>
  402059:	bf 01 00 00 00       	mov    $0x1,%edi
  40205e:	e8 0d ee ff ff       	callq  400e70 <exit@plt>

0000000000402063 <launch>:
  402063:	55                   	push   %rbp
  402064:	48 89 e5             	mov    %rsp,%rbp
  402067:	48 83 ec 10          	sub    $0x10,%rsp
  40206b:	48 89 fa             	mov    %rdi,%rdx
  40206e:	64 48 8b 04 25 28 00 	mov    %fs:0x28,%rax
  402075:	00 00 
  402077:	48 89 45 f8          	mov    %rax,-0x8(%rbp)
  40207b:	31 c0                	xor    %eax,%eax
  40207d:	48 8d 47 1e          	lea    0x1e(%rdi),%rax
  402081:	48 83 e0 f0          	and    $0xfffffffffffffff0,%rax
  402085:	48 29 c4             	sub    %rax,%rsp
  402088:	48 8d 7c 24 0f       	lea    0xf(%rsp),%rdi
  40208d:	48 83 e7 f0          	and    $0xfffffffffffffff0,%rdi
  402091:	be f4 00 00 00       	mov    $0xf4,%esi
  402096:	e8 95 ec ff ff       	callq  400d30 <memset@plt>
  40209b:	48 8b 05 1e 34 20 00 	mov    0x20341e(%rip),%rax        # 6054c0 <stdin@@GLIBC_2.2.5>
  4020a2:	48 39 05 67 34 20 00 	cmp    %rax,0x203467(%rip)        # 605510 <infile>
  4020a9:	75 14                	jne    4020bf <launch+0x5c>
  4020ab:	be 54 35 40 00       	mov    $0x403554,%esi
  4020b0:	bf 01 00 00 00       	mov    $0x1,%edi
  4020b5:	b8 00 00 00 00       	mov    $0x0,%eax
  4020ba:	e8 61 ed ff ff       	callq  400e20 <__printf_chk@plt>
  4020bf:	c7 05 53 34 20 00 00 	movl   $0x0,0x203453(%rip)        # 60551c <vlevel>
  4020c6:	00 00 00 
  4020c9:	b8 00 00 00 00       	mov    $0x0,%eax
  4020ce:	e8 3b f9 ff ff       	callq  401a0e <test>
  4020d3:	83 3d 4e 34 20 00 00 	cmpl   $0x0,0x20344e(%rip)        # 605528 <is_checker>
  4020da:	74 14                	je     4020f0 <launch+0x8d>
  4020dc:	bf 61 35 40 00       	mov    $0x403561,%edi
  4020e1:	e8 0a ec ff ff       	callq  400cf0 <puts@plt>
  4020e6:	b8 00 00 00 00       	mov    $0x0,%eax
  4020eb:	e8 d2 fa ff ff       	callq  401bc2 <check_fail>
  4020f0:	bf 6c 35 40 00       	mov    $0x40356c,%edi
  4020f5:	e8 f6 eb ff ff       	callq  400cf0 <puts@plt>
  4020fa:	48 8b 45 f8          	mov    -0x8(%rbp),%rax
  4020fe:	64 48 33 04 25 28 00 	xor    %fs:0x28,%rax
  402105:	00 00 
  402107:	74 05                	je     40210e <launch+0xab>
  402109:	e8 02 ec ff ff       	callq  400d10 <__stack_chk_fail@plt>
  40210e:	c9                   	leaveq 
  40210f:	c3                   	retq   

0000000000402110 <stable_launch>:
  402110:	53                   	push   %rbx
  402111:	48 89 3d f0 33 20 00 	mov    %rdi,0x2033f0(%rip)        # 605508 <global_offset>
  402118:	41 b9 00 00 00 00    	mov    $0x0,%r9d
  40211e:	41 b8 00 00 00 00    	mov    $0x0,%r8d
  402124:	b9 32 01 00 00       	mov    $0x132,%ecx
  402129:	ba 07 00 00 00       	mov    $0x7,%edx
  40212e:	be 00 00 10 00       	mov    $0x100000,%esi
  402133:	bf 00 60 58 55       	mov    $0x55586000,%edi
  402138:	e8 e3 eb ff ff       	callq  400d20 <mmap@plt>
  40213d:	48 89 c3             	mov    %rax,%rbx
  402140:	48 3d 00 60 58 55    	cmp    $0x55586000,%rax
  402146:	74 37                	je     40217f <stable_launch+0x6f>
  402148:	be 00 00 10 00       	mov    $0x100000,%esi
  40214d:	48 89 c7             	mov    %rax,%rdi
  402150:	e8 bb ec ff ff       	callq  400e10 <munmap@plt>
  402155:	b9 00 60 58 55       	mov    $0x55586000,%ecx
  40215a:	ba 20 37 40 00       	mov    $0x403720,%edx
  40215f:	be 01 00 00 00       	mov    $0x1,%esi
  402164:	48 8b 3d 75 33 20 00 	mov    0x203375(%rip),%rdi        # 6054e0 <stderr@@GLIBC_2.2.5>
  40216b:	b8 00 00 00 00       	mov    $0x0,%eax
  402170:	e8 1b ed ff ff       	callq  400e90 <__fprintf_chk@plt>
  402175:	bf 01 00 00 00       	mov    $0x1,%edi
  40217a:	e8 f1 ec ff ff       	callq  400e70 <exit@plt>
  40217f:	48 8d 90 f8 ff 0f 00 	lea    0xffff8(%rax),%rdx
  402186:	48 89 15 c3 3f 20 00 	mov    %rdx,0x203fc3(%rip)        # 606150 <stack_top>
  40218d:	48 89 e0             	mov    %rsp,%rax
  402190:	48 89 d4             	mov    %rdx,%rsp
  402193:	48 89 c2             	mov    %rax,%rdx
  402196:	48 89 15 63 33 20 00 	mov    %rdx,0x203363(%rip)        # 605500 <global_save_stack>
  40219d:	48 8b 3d 64 33 20 00 	mov    0x203364(%rip),%rdi        # 605508 <global_offset>
  4021a4:	e8 ba fe ff ff       	callq  402063 <launch>
  4021a9:	48 8b 05 50 33 20 00 	mov    0x203350(%rip),%rax        # 605500 <global_save_stack>
  4021b0:	48 89 c4             	mov    %rax,%rsp
  4021b3:	be 00 00 10 00       	mov    $0x100000,%esi
  4021b8:	48 89 df             	mov    %rbx,%rdi
  4021bb:	e8 50 ec ff ff       	callq  400e10 <munmap@plt>
  4021c0:	5b                   	pop    %rbx
  4021c1:	c3                   	retq   

00000000004021c2 <rio_readinitb>:
  4021c2:	89 37                	mov    %esi,(%rdi)
  4021c4:	c7 47 04 00 00 00 00 	movl   $0x0,0x4(%rdi)
  4021cb:	48 8d 47 10          	lea    0x10(%rdi),%rax
  4021cf:	48 89 47 08          	mov    %rax,0x8(%rdi)
  4021d3:	c3                   	retq   

00000000004021d4 <sigalrm_handler>:
  4021d4:	48 83 ec 08          	sub    $0x8,%rsp
  4021d8:	b9 00 00 00 00       	mov    $0x0,%ecx
  4021dd:	ba 60 37 40 00       	mov    $0x403760,%edx
  4021e2:	be 01 00 00 00       	mov    $0x1,%esi
  4021e7:	48 8b 3d f2 32 20 00 	mov    0x2032f2(%rip),%rdi        # 6054e0 <stderr@@GLIBC_2.2.5>
  4021ee:	b8 00 00 00 00       	mov    $0x0,%eax
  4021f3:	e8 98 ec ff ff       	callq  400e90 <__fprintf_chk@plt>
  4021f8:	bf 01 00 00 00       	mov    $0x1,%edi
  4021fd:	e8 6e ec ff ff       	callq  400e70 <exit@plt>

0000000000402202 <rio_writen>:
  402202:	41 55                	push   %r13
  402204:	41 54                	push   %r12
  402206:	55                   	push   %rbp
  402207:	53                   	push   %rbx
  402208:	48 83 ec 08          	sub    $0x8,%rsp
  40220c:	41 89 fc             	mov    %edi,%r12d
  40220f:	48 89 f5             	mov    %rsi,%rbp
  402212:	49 89 d5             	mov    %rdx,%r13
  402215:	48 89 d3             	mov    %rdx,%rbx
  402218:	eb 28                	jmp    402242 <rio_writen+0x40>
  40221a:	48 89 da             	mov    %rbx,%rdx
  40221d:	48 89 ee             	mov    %rbp,%rsi
  402220:	44 89 e7             	mov    %r12d,%edi
  402223:	e8 d8 ea ff ff       	callq  400d00 <write@plt>
  402228:	48 85 c0             	test   %rax,%rax
  40222b:	7f 0f                	jg     40223c <rio_writen+0x3a>
  40222d:	e8 7e ea ff ff       	callq  400cb0 <__errno_location@plt>
  402232:	83 38 04             	cmpl   $0x4,(%rax)
  402235:	75 15                	jne    40224c <rio_writen+0x4a>
  402237:	b8 00 00 00 00       	mov    $0x0,%eax
  40223c:	48 29 c3             	sub    %rax,%rbx
  40223f:	48 01 c5             	add    %rax,%rbp
  402242:	48 85 db             	test   %rbx,%rbx
  402245:	75 d3                	jne    40221a <rio_writen+0x18>
  402247:	4c 89 e8             	mov    %r13,%rax
  40224a:	eb 07                	jmp    402253 <rio_writen+0x51>
  40224c:	48 c7 c0 ff ff ff ff 	mov    $0xffffffffffffffff,%rax
  402253:	48 83 c4 08          	add    $0x8,%rsp
  402257:	5b                   	pop    %rbx
  402258:	5d                   	pop    %rbp
  402259:	41 5c                	pop    %r12
  40225b:	41 5d                	pop    %r13
  40225d:	c3                   	retq   

000000000040225e <rio_read>:
  40225e:	41 55                	push   %r13
  402260:	41 54                	push   %r12
  402262:	55                   	push   %rbp
  402263:	53                   	push   %rbx
  402264:	48 83 ec 08          	sub    $0x8,%rsp
  402268:	48 89 fb             	mov    %rdi,%rbx
  40226b:	49 89 f5             	mov    %rsi,%r13
  40226e:	49 89 d4             	mov    %rdx,%r12
  402271:	eb 2e                	jmp    4022a1 <rio_read+0x43>
  402273:	48 8d 6b 10          	lea    0x10(%rbx),%rbp
  402277:	8b 3b                	mov    (%rbx),%edi
  402279:	ba 00 20 00 00       	mov    $0x2000,%edx
  40227e:	48 89 ee             	mov    %rbp,%rsi
  402281:	e8 da ea ff ff       	callq  400d60 <read@plt>
  402286:	89 43 04             	mov    %eax,0x4(%rbx)
  402289:	85 c0                	test   %eax,%eax
  40228b:	79 0c                	jns    402299 <rio_read+0x3b>
  40228d:	e8 1e ea ff ff       	callq  400cb0 <__errno_location@plt>
  402292:	83 38 04             	cmpl   $0x4,(%rax)
  402295:	74 0a                	je     4022a1 <rio_read+0x43>
  402297:	eb 37                	jmp    4022d0 <rio_read+0x72>
  402299:	85 c0                	test   %eax,%eax
  40229b:	74 3c                	je     4022d9 <rio_read+0x7b>
  40229d:	48 89 6b 08          	mov    %rbp,0x8(%rbx)
  4022a1:	8b 6b 04             	mov    0x4(%rbx),%ebp
  4022a4:	85 ed                	test   %ebp,%ebp
  4022a6:	7e cb                	jle    402273 <rio_read+0x15>
  4022a8:	89 e8                	mov    %ebp,%eax
  4022aa:	49 39 c4             	cmp    %rax,%r12
  4022ad:	77 03                	ja     4022b2 <rio_read+0x54>
  4022af:	44 89 e5             	mov    %r12d,%ebp
  4022b2:	4c 63 e5             	movslq %ebp,%r12
  4022b5:	48 8b 73 08          	mov    0x8(%rbx),%rsi
  4022b9:	4c 89 e2             	mov    %r12,%rdx
  4022bc:	4c 89 ef             	mov    %r13,%rdi
  4022bf:	e8 fc ea ff ff       	callq  400dc0 <memcpy@plt>
  4022c4:	4c 01 63 08          	add    %r12,0x8(%rbx)
  4022c8:	29 6b 04             	sub    %ebp,0x4(%rbx)
  4022cb:	4c 89 e0             	mov    %r12,%rax
  4022ce:	eb 0e                	jmp    4022de <rio_read+0x80>
  4022d0:	48 c7 c0 ff ff ff ff 	mov    $0xffffffffffffffff,%rax
  4022d7:	eb 05                	jmp    4022de <rio_read+0x80>
  4022d9:	b8 00 00 00 00       	mov    $0x0,%eax
  4022de:	48 83 c4 08          	add    $0x8,%rsp
  4022e2:	5b                   	pop    %rbx
  4022e3:	5d                   	pop    %rbp
  4022e4:	41 5c                	pop    %r12
  4022e6:	41 5d                	pop    %r13
  4022e8:	c3                   	retq   

00000000004022e9 <rio_readlineb>:
  4022e9:	41 55                	push   %r13
  4022eb:	41 54                	push   %r12
  4022ed:	55                   	push   %rbp
  4022ee:	53                   	push   %rbx
  4022ef:	48 83 ec 18          	sub    $0x18,%rsp
  4022f3:	49 89 fd             	mov    %rdi,%r13
  4022f6:	48 89 f5             	mov    %rsi,%rbp
  4022f9:	49 89 d4             	mov    %rdx,%r12
  4022fc:	64 48 8b 04 25 28 00 	mov    %fs:0x28,%rax
  402303:	00 00 
  402305:	48 89 44 24 08       	mov    %rax,0x8(%rsp)
  40230a:	31 c0                	xor    %eax,%eax
  40230c:	bb 01 00 00 00       	mov    $0x1,%ebx
  402311:	eb 3f                	jmp    402352 <rio_readlineb+0x69>
  402313:	ba 01 00 00 00       	mov    $0x1,%edx
  402318:	48 8d 74 24 07       	lea    0x7(%rsp),%rsi
  40231d:	4c 89 ef             	mov    %r13,%rdi
  402320:	e8 39 ff ff ff       	callq  40225e <rio_read>
  402325:	83 f8 01             	cmp    $0x1,%eax
  402328:	75 15                	jne    40233f <rio_readlineb+0x56>
  40232a:	48 8d 45 01          	lea    0x1(%rbp),%rax
  40232e:	0f b6 54 24 07       	movzbl 0x7(%rsp),%edx
  402333:	88 55 00             	mov    %dl,0x0(%rbp)
  402336:	80 7c 24 07 0a       	cmpb   $0xa,0x7(%rsp)
  40233b:	75 0e                	jne    40234b <rio_readlineb+0x62>
  40233d:	eb 1a                	jmp    402359 <rio_readlineb+0x70>
  40233f:	85 c0                	test   %eax,%eax
  402341:	75 22                	jne    402365 <rio_readlineb+0x7c>
  402343:	48 83 fb 01          	cmp    $0x1,%rbx
  402347:	75 13                	jne    40235c <rio_readlineb+0x73>
  402349:	eb 23                	jmp    40236e <rio_readlineb+0x85>
  40234b:	48 83 c3 01          	add    $0x1,%rbx
  40234f:	48 89 c5             	mov    %rax,%rbp
  402352:	4c 39 e3             	cmp    %r12,%rbx
  402355:	72 bc                	jb     402313 <rio_readlineb+0x2a>
  402357:	eb 03                	jmp    40235c <rio_readlineb+0x73>
  402359:	48 89 c5             	mov    %rax,%rbp
  40235c:	c6 45 00 00          	movb   $0x0,0x0(%rbp)
  402360:	48 89 d8             	mov    %rbx,%rax
  402363:	eb 0e                	jmp    402373 <rio_readlineb+0x8a>
  402365:	48 c7 c0 ff ff ff ff 	mov    $0xffffffffffffffff,%rax
  40236c:	eb 05                	jmp    402373 <rio_readlineb+0x8a>
  40236e:	b8 00 00 00 00       	mov    $0x0,%eax
  402373:	48 8b 4c 24 08       	mov    0x8(%rsp),%rcx
  402378:	64 48 33 0c 25 28 00 	xor    %fs:0x28,%rcx
  40237f:	00 00 
  402381:	74 05                	je     402388 <rio_readlineb+0x9f>
  402383:	e8 88 e9 ff ff       	callq  400d10 <__stack_chk_fail@plt>
  402388:	48 83 c4 18          	add    $0x18,%rsp
  40238c:	5b                   	pop    %rbx
  40238d:	5d                   	pop    %rbp
  40238e:	41 5c                	pop    %r12
  402390:	41 5d                	pop    %r13
  402392:	c3                   	retq   

0000000000402393 <urlencode>:
  402393:	41 54                	push   %r12
  402395:	55                   	push   %rbp
  402396:	53                   	push   %rbx
  402397:	48 83 ec 10          	sub    $0x10,%rsp
  40239b:	48 89 fb             	mov    %rdi,%rbx
  40239e:	48 89 f5             	mov    %rsi,%rbp
  4023a1:	64 48 8b 04 25 28 00 	mov    %fs:0x28,%rax
  4023a8:	00 00 
  4023aa:	48 89 44 24 08       	mov    %rax,0x8(%rsp)
  4023af:	31 c0                	xor    %eax,%eax
  4023b1:	48 c7 c1 ff ff ff ff 	mov    $0xffffffffffffffff,%rcx
  4023b8:	f2 ae                	repnz scas %es:(%rdi),%al
  4023ba:	48 f7 d1             	not    %rcx
  4023bd:	8d 41 ff             	lea    -0x1(%rcx),%eax
  4023c0:	e9 aa 00 00 00       	jmpq   40246f <urlencode+0xdc>
  4023c5:	44 0f b6 03          	movzbl (%rbx),%r8d
  4023c9:	41 80 f8 2a          	cmp    $0x2a,%r8b
  4023cd:	0f 94 c2             	sete   %dl
  4023d0:	41 80 f8 2d          	cmp    $0x2d,%r8b
  4023d4:	0f 94 c0             	sete   %al
  4023d7:	08 c2                	or     %al,%dl
  4023d9:	75 24                	jne    4023ff <urlencode+0x6c>
  4023db:	41 80 f8 2e          	cmp    $0x2e,%r8b
  4023df:	74 1e                	je     4023ff <urlencode+0x6c>
  4023e1:	41 80 f8 5f          	cmp    $0x5f,%r8b
  4023e5:	74 18                	je     4023ff <urlencode+0x6c>
  4023e7:	41 8d 40 d0          	lea    -0x30(%r8),%eax
  4023eb:	3c 09                	cmp    $0x9,%al
  4023ed:	76 10                	jbe    4023ff <urlencode+0x6c>
  4023ef:	41 8d 40 bf          	lea    -0x41(%r8),%eax
  4023f3:	3c 19                	cmp    $0x19,%al
  4023f5:	76 08                	jbe    4023ff <urlencode+0x6c>
  4023f7:	41 8d 40 9f          	lea    -0x61(%r8),%eax
  4023fb:	3c 19                	cmp    $0x19,%al
  4023fd:	77 0a                	ja     402409 <urlencode+0x76>
  4023ff:	44 88 45 00          	mov    %r8b,0x0(%rbp)
  402403:	48 8d 6d 01          	lea    0x1(%rbp),%rbp
  402407:	eb 5f                	jmp    402468 <urlencode+0xd5>
  402409:	41 80 f8 20          	cmp    $0x20,%r8b
  40240d:	75 0a                	jne    402419 <urlencode+0x86>
  40240f:	c6 45 00 2b          	movb   $0x2b,0x0(%rbp)
  402413:	48 8d 6d 01          	lea    0x1(%rbp),%rbp
  402417:	eb 4f                	jmp    402468 <urlencode+0xd5>
  402419:	41 8d 40 e0          	lea    -0x20(%r8),%eax
  40241d:	3c 5f                	cmp    $0x5f,%al
  40241f:	0f 96 c2             	setbe  %dl
  402422:	41 80 f8 09          	cmp    $0x9,%r8b
  402426:	0f 94 c0             	sete   %al
  402429:	08 c2                	or     %al,%dl
  40242b:	74 50                	je     40247d <urlencode+0xea>
  40242d:	45 0f b6 c0          	movzbl %r8b,%r8d
  402431:	b9 18 38 40 00       	mov    $0x403818,%ecx
  402436:	ba 08 00 00 00       	mov    $0x8,%edx
  40243b:	be 01 00 00 00       	mov    $0x1,%esi
  402440:	48 89 e7             	mov    %rsp,%rdi
  402443:	b8 00 00 00 00       	mov    $0x0,%eax
  402448:	e8 53 ea ff ff       	callq  400ea0 <__sprintf_chk@plt>
  40244d:	0f b6 04 24          	movzbl (%rsp),%eax
  402451:	88 45 00             	mov    %al,0x0(%rbp)
  402454:	0f b6 44 24 01       	movzbl 0x1(%rsp),%eax
  402459:	88 45 01             	mov    %al,0x1(%rbp)
  40245c:	0f b6 44 24 02       	movzbl 0x2(%rsp),%eax
  402461:	88 45 02             	mov    %al,0x2(%rbp)
  402464:	48 8d 6d 03          	lea    0x3(%rbp),%rbp
  402468:	48 83 c3 01          	add    $0x1,%rbx
  40246c:	44 89 e0             	mov    %r12d,%eax
  40246f:	44 8d 60 ff          	lea    -0x1(%rax),%r12d
  402473:	85 c0                	test   %eax,%eax
  402475:	0f 85 4a ff ff ff    	jne    4023c5 <urlencode+0x32>
  40247b:	eb 05                	jmp    402482 <urlencode+0xef>
  40247d:	b8 ff ff ff ff       	mov    $0xffffffff,%eax
  402482:	48 8b 74 24 08       	mov    0x8(%rsp),%rsi
  402487:	64 48 33 34 25 28 00 	xor    %fs:0x28,%rsi
  40248e:	00 00 
  402490:	74 05                	je     402497 <urlencode+0x104>
  402492:	e8 79 e8 ff ff       	callq  400d10 <__stack_chk_fail@plt>
  402497:	48 83 c4 10          	add    $0x10,%rsp
  40249b:	5b                   	pop    %rbx
  40249c:	5d                   	pop    %rbp
  40249d:	41 5c                	pop    %r12
  40249f:	c3                   	retq   

00000000004024a0 <submitr>:
  4024a0:	41 57                	push   %r15
  4024a2:	41 56                	push   %r14
  4024a4:	41 55                	push   %r13
  4024a6:	41 54                	push   %r12
  4024a8:	55                   	push   %rbp
  4024a9:	53                   	push   %rbx
  4024aa:	48 81 ec 58 a0 00 00 	sub    $0xa058,%rsp
  4024b1:	49 89 fd             	mov    %rdi,%r13
  4024b4:	89 74 24 0c          	mov    %esi,0xc(%rsp)
  4024b8:	48 89 14 24          	mov    %rdx,(%rsp)
  4024bc:	49 89 ce             	mov    %rcx,%r14
  4024bf:	4d 89 c7             	mov    %r8,%r15
  4024c2:	4d 89 cc             	mov    %r9,%r12
  4024c5:	48 8b 9c 24 90 a0 00 	mov    0xa090(%rsp),%rbx
  4024cc:	00 
  4024cd:	64 48 8b 04 25 28 00 	mov    %fs:0x28,%rax
  4024d4:	00 00 
  4024d6:	48 89 84 24 48 a0 00 	mov    %rax,0xa048(%rsp)
  4024dd:	00 
  4024de:	31 c0                	xor    %eax,%eax
  4024e0:	c7 44 24 1c 00 00 00 	movl   $0x0,0x1c(%rsp)
  4024e7:	00 
  4024e8:	ba 00 00 00 00       	mov    $0x0,%edx
  4024ed:	be 01 00 00 00       	mov    $0x1,%esi
  4024f2:	bf 02 00 00 00       	mov    $0x2,%edi
  4024f7:	e8 b4 e9 ff ff       	callq  400eb0 <socket@plt>
  4024fc:	85 c0                	test   %eax,%eax
  4024fe:	79 4e                	jns    40254e <submitr+0xae>
  402500:	48 b8 45 72 72 6f 72 	movabs $0x43203a726f727245,%rax
  402507:	3a 20 43 
  40250a:	48 89 03             	mov    %rax,(%rbx)
  40250d:	48 b8 6c 69 65 6e 74 	movabs $0x6e7520746e65696c,%rax
  402514:	20 75 6e 
  402517:	48 89 43 08          	mov    %rax,0x8(%rbx)
  40251b:	48 b8 61 62 6c 65 20 	movabs $0x206f7420656c6261,%rax
  402522:	74 6f 20 
  402525:	48 89 43 10          	mov    %rax,0x10(%rbx)
  402529:	48 b8 63 72 65 61 74 	movabs $0x7320657461657263,%rax
  402530:	65 20 73 
  402533:	48 89 43 18          	mov    %rax,0x18(%rbx)
  402537:	c7 43 20 6f 63 6b 65 	movl   $0x656b636f,0x20(%rbx)
  40253e:	66 c7 43 24 74 00    	movw   $0x74,0x24(%rbx)
  402544:	b8 ff ff ff ff       	mov    $0xffffffff,%eax
  402549:	e9 b3 06 00 00       	jmpq   402c01 <submitr+0x761>
  40254e:	89 c5                	mov    %eax,%ebp
  402550:	4c 89 ef             	mov    %r13,%rdi
  402553:	e8 38 e8 ff ff       	callq  400d90 <gethostbyname@plt>
  402558:	48 85 c0             	test   %rax,%rax
  40255b:	75 75                	jne    4025d2 <submitr+0x132>
  40255d:	48 b8 45 72 72 6f 72 	movabs $0x44203a726f727245,%rax
  402564:	3a 20 44 
  402567:	48 89 03             	mov    %rax,(%rbx)
  40256a:	48 b8 4e 53 20 69 73 	movabs $0x6e7520736920534e,%rax
  402571:	20 75 6e 
  402574:	48 89 43 08          	mov    %rax,0x8(%rbx)
  402578:	48 b8 61 62 6c 65 20 	movabs $0x206f7420656c6261,%rax
  40257f:	74 6f 20 
  402582:	48 89 43 10          	mov    %rax,0x10(%rbx)
  402586:	48 b8 72 65 73 6f 6c 	movabs $0x2065766c6f736572,%rax
  40258d:	76 65 20 
  402590:	48 89 43 18          	mov    %rax,0x18(%rbx)
  402594:	48 b8 41 75 74 6f 6c 	movabs $0x2062616c6f747541,%rax
  40259b:	61 62 20 
  40259e:	48 89 43 20          	mov    %rax,0x20(%rbx)
  4025a2:	48 b8 73 65 72 76 65 	movabs $0x6120726576726573,%rax
  4025a9:	72 20 61 
  4025ac:	48 89 43 28          	mov    %rax,0x28(%rbx)
  4025b0:	c7 43 30 64 64 72 65 	movl   $0x65726464,0x30(%rbx)
  4025b7:	66 c7 43 34 73 73    	movw   $0x7373,0x34(%rbx)
  4025bd:	c6 43 36 00          	movb   $0x0,0x36(%rbx)
  4025c1:	89 ef                	mov    %ebp,%edi
  4025c3:	e8 88 e7 ff ff       	callq  400d50 <close@plt>
  4025c8:	b8 ff ff ff ff       	mov    $0xffffffff,%eax
  4025cd:	e9 2f 06 00 00       	jmpq   402c01 <submitr+0x761>
  4025d2:	48 c7 44 24 20 00 00 	movq   $0x0,0x20(%rsp)
  4025d9:	00 00 
  4025db:	48 c7 44 24 28 00 00 	movq   $0x0,0x28(%rsp)
  4025e2:	00 00 
  4025e4:	66 c7 44 24 20 02 00 	movw   $0x2,0x20(%rsp)
  4025eb:	48 63 50 14          	movslq 0x14(%rax),%rdx
  4025ef:	48 8b 40 18          	mov    0x18(%rax),%rax
  4025f3:	48 8b 30             	mov    (%rax),%rsi
  4025f6:	48 8d 7c 24 24       	lea    0x24(%rsp),%rdi
  4025fb:	b9 0c 00 00 00       	mov    $0xc,%ecx
  402600:	e8 9b e7 ff ff       	callq  400da0 <__memmove_chk@plt>
  402605:	0f b7 44 24 0c       	movzwl 0xc(%rsp),%eax
  40260a:	66 c1 c8 08          	ror    $0x8,%ax
  40260e:	66 89 44 24 22       	mov    %ax,0x22(%rsp)
  402613:	ba 10 00 00 00       	mov    $0x10,%edx
  402618:	48 8d 74 24 20       	lea    0x20(%rsp),%rsi
  40261d:	89 ef                	mov    %ebp,%edi
  40261f:	e8 5c e8 ff ff       	callq  400e80 <connect@plt>
  402624:	85 c0                	test   %eax,%eax
  402626:	79 67                	jns    40268f <submitr+0x1ef>
  402628:	48 b8 45 72 72 6f 72 	movabs $0x55203a726f727245,%rax
  40262f:	3a 20 55 
  402632:	48 89 03             	mov    %rax,(%rbx)
  402635:	48 b8 6e 61 62 6c 65 	movabs $0x6f7420656c62616e,%rax
  40263c:	20 74 6f 
  40263f:	48 89 43 08          	mov    %rax,0x8(%rbx)
  402643:	48 b8 20 63 6f 6e 6e 	movabs $0x7463656e6e6f6320,%rax
  40264a:	65 63 74 
  40264d:	48 89 43 10          	mov    %rax,0x10(%rbx)
  402651:	48 b8 20 74 6f 20 74 	movabs $0x20656874206f7420,%rax
  402658:	68 65 20 
  40265b:	48 89 43 18          	mov    %rax,0x18(%rbx)
  40265f:	48 b8 41 75 74 6f 6c 	movabs $0x2062616c6f747541,%rax
  402666:	61 62 20 
  402669:	48 89 43 20          	mov    %rax,0x20(%rbx)
  40266d:	c7 43 28 73 65 72 76 	movl   $0x76726573,0x28(%rbx)
  402674:	66 c7 43 2c 65 72    	movw   $0x7265,0x2c(%rbx)
  40267a:	c6 43 2e 00          	movb   $0x0,0x2e(%rbx)
  40267e:	89 ef                	mov    %ebp,%edi
  402680:	e8 cb e6 ff ff       	callq  400d50 <close@plt>
  402685:	b8 ff ff ff ff       	mov    $0xffffffff,%eax
  40268a:	e9 72 05 00 00       	jmpq   402c01 <submitr+0x761>
  40268f:	48 c7 c6 ff ff ff ff 	mov    $0xffffffffffffffff,%rsi
  402696:	b8 00 00 00 00       	mov    $0x0,%eax
  40269b:	48 89 f1             	mov    %rsi,%rcx
  40269e:	4c 89 e7             	mov    %r12,%rdi
  4026a1:	f2 ae                	repnz scas %es:(%rdi),%al
  4026a3:	48 f7 d1             	not    %rcx
  4026a6:	48 89 ca             	mov    %rcx,%rdx
  4026a9:	48 89 f1             	mov    %rsi,%rcx
  4026ac:	48 8b 3c 24          	mov    (%rsp),%rdi
  4026b0:	f2 ae                	repnz scas %es:(%rdi),%al
  4026b2:	48 f7 d1             	not    %rcx
  4026b5:	49 89 c8             	mov    %rcx,%r8
  4026b8:	48 89 f1             	mov    %rsi,%rcx
  4026bb:	4c 89 f7             	mov    %r14,%rdi
  4026be:	f2 ae                	repnz scas %es:(%rdi),%al
  4026c0:	48 f7 d1             	not    %rcx
  4026c3:	4d 8d 44 08 fe       	lea    -0x2(%r8,%rcx,1),%r8
  4026c8:	48 89 f1             	mov    %rsi,%rcx
  4026cb:	4c 89 ff             	mov    %r15,%rdi
  4026ce:	f2 ae                	repnz scas %es:(%rdi),%al
  4026d0:	48 89 c8             	mov    %rcx,%rax
  4026d3:	48 f7 d0             	not    %rax
  4026d6:	49 8d 4c 00 ff       	lea    -0x1(%r8,%rax,1),%rcx
  4026db:	48 8d 44 52 fd       	lea    -0x3(%rdx,%rdx,2),%rax
  4026e0:	48 8d 84 01 80 00 00 	lea    0x80(%rcx,%rax,1),%rax
  4026e7:	00 
  4026e8:	48 3d 00 20 00 00    	cmp    $0x2000,%rax
  4026ee:	76 72                	jbe    402762 <submitr+0x2c2>
  4026f0:	48 b8 45 72 72 6f 72 	movabs $0x52203a726f727245,%rax
  4026f7:	3a 20 52 
  4026fa:	48 89 03             	mov    %rax,(%rbx)
  4026fd:	48 b8 65 73 75 6c 74 	movabs $0x747320746c757365,%rax
  402704:	20 73 74 
  402707:	48 89 43 08          	mov    %rax,0x8(%rbx)
  40270b:	48 b8 72 69 6e 67 20 	movabs $0x6f6f7420676e6972,%rax
  402712:	74 6f 6f 
  402715:	48 89 43 10          	mov    %rax,0x10(%rbx)
  402719:	48 b8 20 6c 61 72 67 	movabs $0x202e656772616c20,%rax
  402720:	65 2e 20 
  402723:	48 89 43 18          	mov    %rax,0x18(%rbx)
  402727:	48 b8 49 6e 63 72 65 	movabs $0x6573616572636e49,%rax
  40272e:	61 73 65 
  402731:	48 89 43 20          	mov    %rax,0x20(%rbx)
  402735:	48 b8 20 53 55 42 4d 	movabs $0x5254494d42555320,%rax
  40273c:	49 54 52 
  40273f:	48 89 43 28          	mov    %rax,0x28(%rbx)
  402743:	48 b8 5f 4d 41 58 42 	movabs $0x46554258414d5f,%rax
  40274a:	55 46 00 
  40274d:	48 89 43 30          	mov    %rax,0x30(%rbx)
  402751:	89 ef                	mov    %ebp,%edi
  402753:	e8 f8 e5 ff ff       	callq  400d50 <close@plt>
  402758:	b8 ff ff ff ff       	mov    $0xffffffff,%eax
  40275d:	e9 9f 04 00 00       	jmpq   402c01 <submitr+0x761>
  402762:	48 8d b4 24 40 40 00 	lea    0x4040(%rsp),%rsi
  402769:	00 
  40276a:	b9 00 04 00 00       	mov    $0x400,%ecx
  40276f:	b8 00 00 00 00       	mov    $0x0,%eax
  402774:	48 89 f7             	mov    %rsi,%rdi
  402777:	f3 48 ab             	rep stos %rax,%es:(%rdi)
  40277a:	4c 89 e7             	mov    %r12,%rdi
  40277d:	e8 11 fc ff ff       	callq  402393 <urlencode>
  402782:	85 c0                	test   %eax,%eax
  402784:	0f 89 8a 00 00 00    	jns    402814 <submitr+0x374>
  40278a:	48 b8 45 72 72 6f 72 	movabs $0x52203a726f727245,%rax
  402791:	3a 20 52 
  402794:	48 89 03             	mov    %rax,(%rbx)
  402797:	48 b8 65 73 75 6c 74 	movabs $0x747320746c757365,%rax
  40279e:	20 73 74 
  4027a1:	48 89 43 08          	mov    %rax,0x8(%rbx)
  4027a5:	48 b8 72 69 6e 67 20 	movabs $0x6e6f6320676e6972,%rax
  4027ac:	63 6f 6e 
  4027af:	48 89 43 10          	mov    %rax,0x10(%rbx)
  4027b3:	48 b8 74 61 69 6e 73 	movabs $0x6e6120736e696174,%rax
  4027ba:	20 61 6e 
  4027bd:	48 89 43 18          	mov    %rax,0x18(%rbx)
  4027c1:	48 b8 20 69 6c 6c 65 	movabs $0x6c6167656c6c6920,%rax
  4027c8:	67 61 6c 
  4027cb:	48 89 43 20          	mov    %rax,0x20(%rbx)
  4027cf:	48 b8 20 6f 72 20 75 	movabs $0x72706e7520726f20,%rax
  4027d6:	6e 70 72 
  4027d9:	48 89 43 28          	mov    %rax,0x28(%rbx)
  4027dd:	48 b8 69 6e 74 61 62 	movabs $0x20656c6261746e69,%rax
  4027e4:	6c 65 20 
  4027e7:	48 89 43 30          	mov    %rax,0x30(%rbx)
  4027eb:	48 b8 63 68 61 72 61 	movabs $0x6574636172616863,%rax
  4027f2:	63 74 65 
  4027f5:	48 89 43 38          	mov    %rax,0x38(%rbx)
  4027f9:	66 c7 43 40 72 2e    	movw   $0x2e72,0x40(%rbx)
  4027ff:	c6 43 42 00          	movb   $0x0,0x42(%rbx)
  402803:	89 ef                	mov    %ebp,%edi
  402805:	e8 46 e5 ff ff       	callq  400d50 <close@plt>
  40280a:	b8 ff ff ff ff       	mov    $0xffffffff,%eax
  40280f:	e9 ed 03 00 00       	jmpq   402c01 <submitr+0x761>
  402814:	4c 8d a4 24 40 20 00 	lea    0x2040(%rsp),%r12
  40281b:	00 
  40281c:	48 83 ec 08          	sub    $0x8,%rsp
  402820:	41 55                	push   %r13
  402822:	48 8d 84 24 50 40 00 	lea    0x4050(%rsp),%rax
  402829:	00 
  40282a:	50                   	push   %rax
  40282b:	41 56                	push   %r14
  40282d:	4d 89 f9             	mov    %r15,%r9
  402830:	4c 8b 44 24 20       	mov    0x20(%rsp),%r8
  402835:	b9 88 37 40 00       	mov    $0x403788,%ecx
  40283a:	ba 00 20 00 00       	mov    $0x2000,%edx
  40283f:	be 01 00 00 00       	mov    $0x1,%esi
  402844:	4c 89 e7             	mov    %r12,%rdi
  402847:	b8 00 00 00 00       	mov    $0x0,%eax
  40284c:	e8 4f e6 ff ff       	callq  400ea0 <__sprintf_chk@plt>
  402851:	b8 00 00 00 00       	mov    $0x0,%eax
  402856:	48 c7 c1 ff ff ff ff 	mov    $0xffffffffffffffff,%rcx
  40285d:	4c 89 e7             	mov    %r12,%rdi
  402860:	f2 ae                	repnz scas %es:(%rdi),%al
  402862:	48 f7 d1             	not    %rcx
  402865:	48 8d 51 ff          	lea    -0x1(%rcx),%rdx
  402869:	48 83 c4 20          	add    $0x20,%rsp
  40286d:	4c 89 e6             	mov    %r12,%rsi
  402870:	89 ef                	mov    %ebp,%edi
  402872:	e8 8b f9 ff ff       	callq  402202 <rio_writen>
  402877:	48 85 c0             	test   %rax,%rax
  40287a:	79 6b                	jns    4028e7 <submitr+0x447>
  40287c:	48 b8 45 72 72 6f 72 	movabs $0x43203a726f727245,%rax
  402883:	3a 20 43 
  402886:	48 89 03             	mov    %rax,(%rbx)
  402889:	48 b8 6c 69 65 6e 74 	movabs $0x6e7520746e65696c,%rax
  402890:	20 75 6e 
  402893:	48 89 43 08          	mov    %rax,0x8(%rbx)
  402897:	48 b8 61 62 6c 65 20 	movabs $0x206f7420656c6261,%rax
  40289e:	74 6f 20 
  4028a1:	48 89 43 10          	mov    %rax,0x10(%rbx)
  4028a5:	48 b8 77 72 69 74 65 	movabs $0x6f74206574697277,%rax
  4028ac:	20 74 6f 
  4028af:	48 89 43 18          	mov    %rax,0x18(%rbx)
  4028b3:	48 b8 20 74 68 65 20 	movabs $0x7475412065687420,%rax
  4028ba:	41 75 74 
  4028bd:	48 89 43 20          	mov    %rax,0x20(%rbx)
  4028c1:	48 b8 6f 6c 61 62 20 	movabs $0x7265732062616c6f,%rax
  4028c8:	73 65 72 
  4028cb:	48 89 43 28          	mov    %rax,0x28(%rbx)
  4028cf:	c7 43 30 76 65 72 00 	movl   $0x726576,0x30(%rbx)
  4028d6:	89 ef                	mov    %ebp,%edi
  4028d8:	e8 73 e4 ff ff       	callq  400d50 <close@plt>
  4028dd:	b8 ff ff ff ff       	mov    $0xffffffff,%eax
  4028e2:	e9 1a 03 00 00       	jmpq   402c01 <submitr+0x761>
  4028e7:	89 ee                	mov    %ebp,%esi
  4028e9:	48 8d 7c 24 30       	lea    0x30(%rsp),%rdi
  4028ee:	e8 cf f8 ff ff       	callq  4021c2 <rio_readinitb>
  4028f3:	ba 00 20 00 00       	mov    $0x2000,%edx
  4028f8:	48 8d b4 24 40 20 00 	lea    0x2040(%rsp),%rsi
  4028ff:	00 
  402900:	48 8d 7c 24 30       	lea    0x30(%rsp),%rdi
  402905:	e8 df f9 ff ff       	callq  4022e9 <rio_readlineb>
  40290a:	48 85 c0             	test   %rax,%rax
  40290d:	7f 7f                	jg     40298e <submitr+0x4ee>
  40290f:	48 b8 45 72 72 6f 72 	movabs $0x43203a726f727245,%rax
  402916:	3a 20 43 
  402919:	48 89 03             	mov    %rax,(%rbx)
  40291c:	48 b8 6c 69 65 6e 74 	movabs $0x6e7520746e65696c,%rax
  402923:	20 75 6e 
  402926:	48 89 43 08          	mov    %rax,0x8(%rbx)
  40292a:	48 b8 61 62 6c 65 20 	movabs $0x206f7420656c6261,%rax
  402931:	74 6f 20 
  402934:	48 89 43 10          	mov    %rax,0x10(%rbx)
  402938:	48 b8 72 65 61 64 20 	movabs $0x7269662064616572,%rax
  40293f:	66 69 72 
  402942:	48 89 43 18          	mov    %rax,0x18(%rbx)
  402946:	48 b8 73 74 20 68 65 	movabs $0x6564616568207473,%rax
  40294d:	61 64 65 
  402950:	48 89 43 20          	mov    %rax,0x20(%rbx)
  402954:	48 b8 72 20 66 72 6f 	movabs $0x41206d6f72662072,%rax
  40295b:	6d 20 41 
  40295e:	48 89 43 28          	mov    %rax,0x28(%rbx)
  402962:	48 b8 75 74 6f 6c 61 	movabs $0x732062616c6f7475,%rax
  402969:	62 20 73 
  40296c:	48 89 43 30          	mov    %rax,0x30(%rbx)
  402970:	c7 43 38 65 72 76 65 	movl   $0x65767265,0x38(%rbx)
  402977:	66 c7 43 3c 72 00    	movw   $0x72,0x3c(%rbx)
  40297d:	89 ef                	mov    %ebp,%edi
  40297f:	e8 cc e3 ff ff       	callq  400d50 <close@plt>
  402984:	b8 ff ff ff ff       	mov    $0xffffffff,%eax
  402989:	e9 73 02 00 00       	jmpq   402c01 <submitr+0x761>
  40298e:	4c 8d 84 24 40 80 00 	lea    0x8040(%rsp),%r8
  402995:	00 
  402996:	48 8d 4c 24 1c       	lea    0x1c(%rsp),%rcx
  40299b:	48 8d 94 24 40 60 00 	lea    0x6040(%rsp),%rdx
  4029a2:	00 
  4029a3:	be 1f 38 40 00       	mov    $0x40381f,%esi
  4029a8:	48 8d bc 24 40 20 00 	lea    0x2040(%rsp),%rdi
  4029af:	00 
  4029b0:	b8 00 00 00 00       	mov    $0x0,%eax
  4029b5:	e8 46 e4 ff ff       	callq  400e00 <__isoc99_sscanf@plt>
  4029ba:	e9 92 00 00 00       	jmpq   402a51 <submitr+0x5b1>
  4029bf:	ba 00 20 00 00       	mov    $0x2000,%edx
  4029c4:	48 8d b4 24 40 20 00 	lea    0x2040(%rsp),%rsi
  4029cb:	00 
  4029cc:	48 8d 7c 24 30       	lea    0x30(%rsp),%rdi
  4029d1:	e8 13 f9 ff ff       	callq  4022e9 <rio_readlineb>
  4029d6:	48 85 c0             	test   %rax,%rax
  4029d9:	7f 76                	jg     402a51 <submitr+0x5b1>
  4029db:	48 b8 45 72 72 6f 72 	movabs $0x43203a726f727245,%rax
  4029e2:	3a 20 43 
  4029e5:	48 89 03             	mov    %rax,(%rbx)
  4029e8:	48 b8 6c 69 65 6e 74 	movabs $0x6e7520746e65696c,%rax
  4029ef:	20 75 6e 
  4029f2:	48 89 43 08          	mov    %rax,0x8(%rbx)
  4029f6:	48 b8 61 62 6c 65 20 	movabs $0x206f7420656c6261,%rax
  4029fd:	74 6f 20 
  402a00:	48 89 43 10          	mov    %rax,0x10(%rbx)
  402a04:	48 b8 72 65 61 64 20 	movabs $0x6165682064616572,%rax
  402a0b:	68 65 61 
  402a0e:	48 89 43 18          	mov    %rax,0x18(%rbx)
  402a12:	48 b8 64 65 72 73 20 	movabs $0x6f72662073726564,%rax
  402a19:	66 72 6f 
  402a1c:	48 89 43 20          	mov    %rax,0x20(%rbx)
  402a20:	48 b8 6d 20 41 75 74 	movabs $0x616c6f747541206d,%rax
  402a27:	6f 6c 61 
  402a2a:	48 89 43 28          	mov    %rax,0x28(%rbx)
  402a2e:	48 b8 62 20 73 65 72 	movabs $0x7265767265732062,%rax
  402a35:	76 65 72 
  402a38:	48 89 43 30          	mov    %rax,0x30(%rbx)
  402a3c:	c6 43 38 00          	movb   $0x0,0x38(%rbx)
  402a40:	89 ef                	mov    %ebp,%edi
  402a42:	e8 09 e3 ff ff       	callq  400d50 <close@plt>
  402a47:	b8 ff ff ff ff       	mov    $0xffffffff,%eax
  402a4c:	e9 b0 01 00 00       	jmpq   402c01 <submitr+0x761>
  402a51:	0f b6 94 24 40 20 00 	movzbl 0x2040(%rsp),%edx
  402a58:	00 
  402a59:	b8 0d 00 00 00       	mov    $0xd,%eax
  402a5e:	29 d0                	sub    %edx,%eax
  402a60:	75 1b                	jne    402a7d <submitr+0x5dd>
  402a62:	0f b6 94 24 41 20 00 	movzbl 0x2041(%rsp),%edx
  402a69:	00 
  402a6a:	b8 0a 00 00 00       	mov    $0xa,%eax
  402a6f:	29 d0                	sub    %edx,%eax
  402a71:	75 0a                	jne    402a7d <submitr+0x5dd>
  402a73:	0f b6 84 24 42 20 00 	movzbl 0x2042(%rsp),%eax
  402a7a:	00 
  402a7b:	f7 d8                	neg    %eax
  402a7d:	85 c0                	test   %eax,%eax
  402a7f:	0f 85 3a ff ff ff    	jne    4029bf <submitr+0x51f>
  402a85:	ba 00 20 00 00       	mov    $0x2000,%edx
  402a8a:	48 8d b4 24 40 20 00 	lea    0x2040(%rsp),%rsi
  402a91:	00 
  402a92:	48 8d 7c 24 30       	lea    0x30(%rsp),%rdi
  402a97:	e8 4d f8 ff ff       	callq  4022e9 <rio_readlineb>
  402a9c:	48 85 c0             	test   %rax,%rax
  402a9f:	0f 8f 80 00 00 00    	jg     402b25 <submitr+0x685>
  402aa5:	48 b8 45 72 72 6f 72 	movabs $0x43203a726f727245,%rax
  402aac:	3a 20 43 
  402aaf:	48 89 03             	mov    %rax,(%rbx)
  402ab2:	48 b8 6c 69 65 6e 74 	movabs $0x6e7520746e65696c,%rax
  402ab9:	20 75 6e 
  402abc:	48 89 43 08          	mov    %rax,0x8(%rbx)
  402ac0:	48 b8 61 62 6c 65 20 	movabs $0x206f7420656c6261,%rax
  402ac7:	74 6f 20 
  402aca:	48 89 43 10          	mov    %rax,0x10(%rbx)
  402ace:	48 b8 72 65 61 64 20 	movabs $0x6174732064616572,%rax
  402ad5:	73 74 61 
  402ad8:	48 89 43 18          	mov    %rax,0x18(%rbx)
  402adc:	48 b8 74 75 73 20 6d 	movabs $0x7373656d20737574,%rax
  402ae3:	65 73 73 
  402ae6:	48 89 43 20          	mov    %rax,0x20(%rbx)
  402aea:	48 b8 61 67 65 20 66 	movabs $0x6d6f726620656761,%rax
  402af1:	72 6f 6d 
  402af4:	48 89 43 28          	mov    %rax,0x28(%rbx)
  402af8:	48 b8 20 41 75 74 6f 	movabs $0x62616c6f74754120,%rax
  402aff:	6c 61 62 
  402b02:	48 89 43 30          	mov    %rax,0x30(%rbx)
  402b06:	48 b8 20 73 65 72 76 	movabs $0x72657672657320,%rax
  402b0d:	65 72 00 
  402b10:	48 89 43 38          	mov    %rax,0x38(%rbx)
  402b14:	89 ef                	mov    %ebp,%edi
  402b16:	e8 35 e2 ff ff       	callq  400d50 <close@plt>
  402b1b:	b8 ff ff ff ff       	mov    $0xffffffff,%eax
  402b20:	e9 dc 00 00 00       	jmpq   402c01 <submitr+0x761>
  402b25:	44 8b 44 24 1c       	mov    0x1c(%rsp),%r8d
  402b2a:	41 81 f8 c8 00 00 00 	cmp    $0xc8,%r8d
  402b31:	74 37                	je     402b6a <submitr+0x6ca>
  402b33:	4c 8d 8c 24 40 80 00 	lea    0x8040(%rsp),%r9
  402b3a:	00 
  402b3b:	b9 e8 37 40 00       	mov    $0x4037e8,%ecx
  402b40:	48 c7 c2 ff ff ff ff 	mov    $0xffffffffffffffff,%rdx
  402b47:	be 01 00 00 00       	mov    $0x1,%esi
  402b4c:	48 89 df             	mov    %rbx,%rdi
  402b4f:	b8 00 00 00 00       	mov    $0x0,%eax
  402b54:	e8 47 e3 ff ff       	callq  400ea0 <__sprintf_chk@plt>
  402b59:	89 ef                	mov    %ebp,%edi
  402b5b:	e8 f0 e1 ff ff       	callq  400d50 <close@plt>
  402b60:	b8 ff ff ff ff       	mov    $0xffffffff,%eax
  402b65:	e9 97 00 00 00       	jmpq   402c01 <submitr+0x761>
  402b6a:	48 8d b4 24 40 20 00 	lea    0x2040(%rsp),%rsi
  402b71:	00 
  402b72:	48 89 df             	mov    %rbx,%rdi
  402b75:	e8 66 e1 ff ff       	callq  400ce0 <strcpy@plt>
  402b7a:	89 ef                	mov    %ebp,%edi
  402b7c:	e8 cf e1 ff ff       	callq  400d50 <close@plt>
  402b81:	0f b6 03             	movzbl (%rbx),%eax
  402b84:	ba 4f 00 00 00       	mov    $0x4f,%edx
  402b89:	29 c2                	sub    %eax,%edx
  402b8b:	75 22                	jne    402baf <submitr+0x70f>
  402b8d:	0f b6 4b 01          	movzbl 0x1(%rbx),%ecx
  402b91:	b8 4b 00 00 00       	mov    $0x4b,%eax
  402b96:	29 c8                	sub    %ecx,%eax
  402b98:	75 17                	jne    402bb1 <submitr+0x711>
  402b9a:	0f b6 4b 02          	movzbl 0x2(%rbx),%ecx
  402b9e:	b8 0a 00 00 00       	mov    $0xa,%eax
  402ba3:	29 c8                	sub    %ecx,%eax
  402ba5:	75 0a                	jne    402bb1 <submitr+0x711>
  402ba7:	0f b6 43 03          	movzbl 0x3(%rbx),%eax
  402bab:	f7 d8                	neg    %eax
  402bad:	eb 02                	jmp    402bb1 <submitr+0x711>
  402baf:	89 d0                	mov    %edx,%eax
  402bb1:	85 c0                	test   %eax,%eax
  402bb3:	74 40                	je     402bf5 <submitr+0x755>
  402bb5:	bf 30 38 40 00       	mov    $0x403830,%edi
  402bba:	b9 05 00 00 00       	mov    $0x5,%ecx
  402bbf:	48 89 de             	mov    %rbx,%rsi
  402bc2:	f3 a6                	repz cmpsb %es:(%rdi),%ds:(%rsi)
  402bc4:	0f 97 c0             	seta   %al
  402bc7:	0f 92 c1             	setb   %cl
  402bca:	29 c8                	sub    %ecx,%eax
  402bcc:	0f be c0             	movsbl %al,%eax
  402bcf:	85 c0                	test   %eax,%eax
  402bd1:	74 2e                	je     402c01 <submitr+0x761>
  402bd3:	85 d2                	test   %edx,%edx
  402bd5:	75 13                	jne    402bea <submitr+0x74a>
  402bd7:	0f b6 43 01          	movzbl 0x1(%rbx),%eax
  402bdb:	ba 4b 00 00 00       	mov    $0x4b,%edx
  402be0:	29 c2                	sub    %eax,%edx
  402be2:	75 06                	jne    402bea <submitr+0x74a>
  402be4:	0f b6 53 02          	movzbl 0x2(%rbx),%edx
  402be8:	f7 da                	neg    %edx
  402bea:	85 d2                	test   %edx,%edx
  402bec:	75 0e                	jne    402bfc <submitr+0x75c>
  402bee:	b8 00 00 00 00       	mov    $0x0,%eax
  402bf3:	eb 0c                	jmp    402c01 <submitr+0x761>
  402bf5:	b8 00 00 00 00       	mov    $0x0,%eax
  402bfa:	eb 05                	jmp    402c01 <submitr+0x761>
  402bfc:	b8 ff ff ff ff       	mov    $0xffffffff,%eax
  402c01:	48 8b 9c 24 48 a0 00 	mov    0xa048(%rsp),%rbx
  402c08:	00 
  402c09:	64 48 33 1c 25 28 00 	xor    %fs:0x28,%rbx
  402c10:	00 00 
  402c12:	74 05                	je     402c19 <submitr+0x779>
  402c14:	e8 f7 e0 ff ff       	callq  400d10 <__stack_chk_fail@plt>
  402c19:	48 81 c4 58 a0 00 00 	add    $0xa058,%rsp
  402c20:	5b                   	pop    %rbx
  402c21:	5d                   	pop    %rbp
  402c22:	41 5c                	pop    %r12
  402c24:	41 5d                	pop    %r13
  402c26:	41 5e                	pop    %r14
  402c28:	41 5f                	pop    %r15
  402c2a:	c3                   	retq   

0000000000402c2b <init_timeout>:
  402c2b:	85 ff                	test   %edi,%edi
  402c2d:	74 23                	je     402c52 <init_timeout+0x27>
  402c2f:	53                   	push   %rbx
  402c30:	89 fb                	mov    %edi,%ebx
  402c32:	85 ff                	test   %edi,%edi
  402c34:	79 05                	jns    402c3b <init_timeout+0x10>
  402c36:	bb 00 00 00 00       	mov    $0x0,%ebx
  402c3b:	be d4 21 40 00       	mov    $0x4021d4,%esi
  402c40:	bf 0e 00 00 00       	mov    $0xe,%edi
  402c45:	e8 36 e1 ff ff       	callq  400d80 <signal@plt>
  402c4a:	89 df                	mov    %ebx,%edi
  402c4c:	e8 ef e0 ff ff       	callq  400d40 <alarm@plt>
  402c51:	5b                   	pop    %rbx
  402c52:	f3 c3                	repz retq 

0000000000402c54 <init_driver>:
  402c54:	55                   	push   %rbp
  402c55:	53                   	push   %rbx
  402c56:	48 83 ec 28          	sub    $0x28,%rsp
  402c5a:	48 89 fd             	mov    %rdi,%rbp
  402c5d:	64 48 8b 04 25 28 00 	mov    %fs:0x28,%rax
  402c64:	00 00 
  402c66:	48 89 44 24 18       	mov    %rax,0x18(%rsp)
  402c6b:	31 c0                	xor    %eax,%eax
  402c6d:	be 01 00 00 00       	mov    $0x1,%esi
  402c72:	bf 0d 00 00 00       	mov    $0xd,%edi
  402c77:	e8 04 e1 ff ff       	callq  400d80 <signal@plt>
  402c7c:	be 01 00 00 00       	mov    $0x1,%esi
  402c81:	bf 1d 00 00 00       	mov    $0x1d,%edi
  402c86:	e8 f5 e0 ff ff       	callq  400d80 <signal@plt>
  402c8b:	be 01 00 00 00       	mov    $0x1,%esi
  402c90:	bf 1d 00 00 00       	mov    $0x1d,%edi
  402c95:	e8 e6 e0 ff ff       	callq  400d80 <signal@plt>
  402c9a:	ba 00 00 00 00       	mov    $0x0,%edx
  402c9f:	be 01 00 00 00       	mov    $0x1,%esi
  402ca4:	bf 02 00 00 00       	mov    $0x2,%edi
  402ca9:	e8 02 e2 ff ff       	callq  400eb0 <socket@plt>
  402cae:	85 c0                	test   %eax,%eax
  402cb0:	79 4f                	jns    402d01 <init_driver+0xad>
  402cb2:	48 b8 45 72 72 6f 72 	movabs $0x43203a726f727245,%rax
  402cb9:	3a 20 43 
  402cbc:	48 89 45 00          	mov    %rax,0x0(%rbp)
  402cc0:	48 b8 6c 69 65 6e 74 	movabs $0x6e7520746e65696c,%rax
  402cc7:	20 75 6e 
  402cca:	48 89 45 08          	mov    %rax,0x8(%rbp)
  402cce:	48 b8 61 62 6c 65 20 	movabs $0x206f7420656c6261,%rax
  402cd5:	74 6f 20 
  402cd8:	48 89 45 10          	mov    %rax,0x10(%rbp)
  402cdc:	48 b8 63 72 65 61 74 	movabs $0x7320657461657263,%rax
  402ce3:	65 20 73 
  402ce6:	48 89 45 18          	mov    %rax,0x18(%rbp)
  402cea:	c7 45 20 6f 63 6b 65 	movl   $0x656b636f,0x20(%rbp)
  402cf1:	66 c7 45 24 74 00    	movw   $0x74,0x24(%rbp)
  402cf7:	b8 ff ff ff ff       	mov    $0xffffffff,%eax
  402cfc:	e9 2a 01 00 00       	jmpq   402e2b <init_driver+0x1d7>
  402d01:	89 c3                	mov    %eax,%ebx
  402d03:	bf 55 33 40 00       	mov    $0x403355,%edi
  402d08:	e8 83 e0 ff ff       	callq  400d90 <gethostbyname@plt>
  402d0d:	48 85 c0             	test   %rax,%rax
  402d10:	75 68                	jne    402d7a <init_driver+0x126>
  402d12:	48 b8 45 72 72 6f 72 	movabs $0x44203a726f727245,%rax
  402d19:	3a 20 44 
  402d1c:	48 89 45 00          	mov    %rax,0x0(%rbp)
  402d20:	48 b8 4e 53 20 69 73 	movabs $0x6e7520736920534e,%rax
  402d27:	20 75 6e 
  402d2a:	48 89 45 08          	mov    %rax,0x8(%rbp)
  402d2e:	48 b8 61 62 6c 65 20 	movabs $0x206f7420656c6261,%rax
  402d35:	74 6f 20 
  402d38:	48 89 45 10          	mov    %rax,0x10(%rbp)
  402d3c:	48 b8 72 65 73 6f 6c 	movabs $0x2065766c6f736572,%rax
  402d43:	76 65 20 
  402d46:	48 89 45 18          	mov    %rax,0x18(%rbp)
  402d4a:	48 b8 73 65 72 76 65 	movabs $0x6120726576726573,%rax
  402d51:	72 20 61 
  402d54:	48 89 45 20          	mov    %rax,0x20(%rbp)
  402d58:	c7 45 28 64 64 72 65 	movl   $0x65726464,0x28(%rbp)
  402d5f:	66 c7 45 2c 73 73    	movw   $0x7373,0x2c(%rbp)
  402d65:	c6 45 2e 00          	movb   $0x0,0x2e(%rbp)
  402d69:	89 df                	mov    %ebx,%edi
  402d6b:	e8 e0 df ff ff       	callq  400d50 <close@plt>
  402d70:	b8 ff ff ff ff       	mov    $0xffffffff,%eax
  402d75:	e9 b1 00 00 00       	jmpq   402e2b <init_driver+0x1d7>
  402d7a:	48 c7 04 24 00 00 00 	movq   $0x0,(%rsp)
  402d81:	00 
  402d82:	48 c7 44 24 08 00 00 	movq   $0x0,0x8(%rsp)
  402d89:	00 00 
  402d8b:	66 c7 04 24 02 00    	movw   $0x2,(%rsp)
  402d91:	48 63 50 14          	movslq 0x14(%rax),%rdx
  402d95:	48 8b 40 18          	mov    0x18(%rax),%rax
  402d99:	48 8b 30             	mov    (%rax),%rsi
  402d9c:	48 8d 7c 24 04       	lea    0x4(%rsp),%rdi
  402da1:	b9 0c 00 00 00       	mov    $0xc,%ecx
  402da6:	e8 f5 df ff ff       	callq  400da0 <__memmove_chk@plt>
  402dab:	66 c7 44 24 02 00 50 	movw   $0x5000,0x2(%rsp)
  402db2:	ba 10 00 00 00       	mov    $0x10,%edx
  402db7:	48 89 e6             	mov    %rsp,%rsi
  402dba:	89 df                	mov    %ebx,%edi
  402dbc:	e8 bf e0 ff ff       	callq  400e80 <connect@plt>
  402dc1:	85 c0                	test   %eax,%eax
  402dc3:	79 50                	jns    402e15 <init_driver+0x1c1>
  402dc5:	48 b8 45 72 72 6f 72 	movabs $0x55203a726f727245,%rax
  402dcc:	3a 20 55 
  402dcf:	48 89 45 00          	mov    %rax,0x0(%rbp)
  402dd3:	48 b8 6e 61 62 6c 65 	movabs $0x6f7420656c62616e,%rax
  402dda:	20 74 6f 
  402ddd:	48 89 45 08          	mov    %rax,0x8(%rbp)
  402de1:	48 b8 20 63 6f 6e 6e 	movabs $0x7463656e6e6f6320,%rax
  402de8:	65 63 74 
  402deb:	48 89 45 10          	mov    %rax,0x10(%rbp)
  402def:	48 b8 20 74 6f 20 73 	movabs $0x76726573206f7420,%rax
  402df6:	65 72 76 
  402df9:	48 89 45 18          	mov    %rax,0x18(%rbp)
  402dfd:	66 c7 45 20 65 72    	movw   $0x7265,0x20(%rbp)
  402e03:	c6 45 22 00          	movb   $0x0,0x22(%rbp)
  402e07:	89 df                	mov    %ebx,%edi
  402e09:	e8 42 df ff ff       	callq  400d50 <close@plt>
  402e0e:	b8 ff ff ff ff       	mov    $0xffffffff,%eax
  402e13:	eb 16                	jmp    402e2b <init_driver+0x1d7>
  402e15:	89 df                	mov    %ebx,%edi
  402e17:	e8 34 df ff ff       	callq  400d50 <close@plt>
  402e1c:	66 c7 45 00 4f 4b    	movw   $0x4b4f,0x0(%rbp)
  402e22:	c6 45 02 00          	movb   $0x0,0x2(%rbp)
  402e26:	b8 00 00 00 00       	mov    $0x0,%eax
  402e2b:	48 8b 4c 24 18       	mov    0x18(%rsp),%rcx
  402e30:	64 48 33 0c 25 28 00 	xor    %fs:0x28,%rcx
  402e37:	00 00 
  402e39:	74 05                	je     402e40 <init_driver+0x1ec>
  402e3b:	e8 d0 de ff ff       	callq  400d10 <__stack_chk_fail@plt>
  402e40:	48 83 c4 28          	add    $0x28,%rsp
  402e44:	5b                   	pop    %rbx
  402e45:	5d                   	pop    %rbp
  402e46:	c3                   	retq   

0000000000402e47 <driver_post>:
  402e47:	53                   	push   %rbx
  402e48:	4c 89 cb             	mov    %r9,%rbx
  402e4b:	45 85 c0             	test   %r8d,%r8d
  402e4e:	74 27                	je     402e77 <driver_post+0x30>
  402e50:	48 89 ca             	mov    %rcx,%rdx
  402e53:	be 35 38 40 00       	mov    $0x403835,%esi
  402e58:	bf 01 00 00 00       	mov    $0x1,%edi
  402e5d:	b8 00 00 00 00       	mov    $0x0,%eax
  402e62:	e8 b9 df ff ff       	callq  400e20 <__printf_chk@plt>
  402e67:	66 c7 03 4f 4b       	movw   $0x4b4f,(%rbx)
  402e6c:	c6 43 02 00          	movb   $0x0,0x2(%rbx)
  402e70:	b8 00 00 00 00       	mov    $0x0,%eax
  402e75:	eb 3f                	jmp    402eb6 <driver_post+0x6f>
  402e77:	48 85 ff             	test   %rdi,%rdi
  402e7a:	74 2c                	je     402ea8 <driver_post+0x61>
  402e7c:	80 3f 00             	cmpb   $0x0,(%rdi)
  402e7f:	74 27                	je     402ea8 <driver_post+0x61>
  402e81:	48 83 ec 08          	sub    $0x8,%rsp
  402e85:	41 51                	push   %r9
  402e87:	49 89 c9             	mov    %rcx,%r9
  402e8a:	49 89 d0             	mov    %rdx,%r8
  402e8d:	48 89 f9             	mov    %rdi,%rcx
  402e90:	48 89 f2             	mov    %rsi,%rdx
  402e93:	be 50 00 00 00       	mov    $0x50,%esi
  402e98:	bf 55 33 40 00       	mov    $0x403355,%edi
  402e9d:	e8 fe f5 ff ff       	callq  4024a0 <submitr>
  402ea2:	48 83 c4 10          	add    $0x10,%rsp
  402ea6:	eb 0e                	jmp    402eb6 <driver_post+0x6f>
  402ea8:	66 c7 03 4f 4b       	movw   $0x4b4f,(%rbx)
  402ead:	c6 43 02 00          	movb   $0x0,0x2(%rbx)
  402eb1:	b8 00 00 00 00       	mov    $0x0,%eax
  402eb6:	5b                   	pop    %rbx
  402eb7:	c3                   	retq   

0000000000402eb8 <check>:
  402eb8:	89 f8                	mov    %edi,%eax
  402eba:	c1 e8 1c             	shr    $0x1c,%eax
  402ebd:	85 c0                	test   %eax,%eax
  402ebf:	74 1d                	je     402ede <check+0x26>
  402ec1:	b9 00 00 00 00       	mov    $0x0,%ecx
  402ec6:	eb 0b                	jmp    402ed3 <check+0x1b>
  402ec8:	89 f8                	mov    %edi,%eax
  402eca:	d3 e8                	shr    %cl,%eax
  402ecc:	3c 0a                	cmp    $0xa,%al
  402ece:	74 14                	je     402ee4 <check+0x2c>
  402ed0:	83 c1 08             	add    $0x8,%ecx
  402ed3:	83 f9 1f             	cmp    $0x1f,%ecx
  402ed6:	7e f0                	jle    402ec8 <check+0x10>
  402ed8:	b8 01 00 00 00       	mov    $0x1,%eax
  402edd:	c3                   	retq   
  402ede:	b8 00 00 00 00       	mov    $0x0,%eax
  402ee3:	c3                   	retq   
  402ee4:	b8 00 00 00 00       	mov    $0x0,%eax
  402ee9:	c3                   	retq   

0000000000402eea <gencookie>:
  402eea:	53                   	push   %rbx
  402eeb:	83 c7 01             	add    $0x1,%edi
  402eee:	e8 cd dd ff ff       	callq  400cc0 <srandom@plt>
  402ef3:	e8 e8 de ff ff       	callq  400de0 <random@plt>
  402ef8:	89 c3                	mov    %eax,%ebx
  402efa:	89 c7                	mov    %eax,%edi
  402efc:	e8 b7 ff ff ff       	callq  402eb8 <check>
  402f01:	85 c0                	test   %eax,%eax
  402f03:	74 ee                	je     402ef3 <gencookie+0x9>
  402f05:	89 d8                	mov    %ebx,%eax
  402f07:	5b                   	pop    %rbx
  402f08:	c3                   	retq   
  402f09:	0f 1f 80 00 00 00 00 	nopl   0x0(%rax)

0000000000402f10 <__libc_csu_init>:
  402f10:	41 57                	push   %r15
  402f12:	41 56                	push   %r14
  402f14:	41 89 ff             	mov    %edi,%r15d
  402f17:	41 55                	push   %r13
  402f19:	41 54                	push   %r12
  402f1b:	4c 8d 25 de 1e 20 00 	lea    0x201ede(%rip),%r12        # 604e00 <__frame_dummy_init_array_entry>
  402f22:	55                   	push   %rbp
  402f23:	48 8d 2d de 1e 20 00 	lea    0x201ede(%rip),%rbp        # 604e08 <__init_array_end>
  402f2a:	53                   	push   %rbx
  402f2b:	49 89 f6             	mov    %rsi,%r14
  402f2e:	49 89 d5             	mov    %rdx,%r13
  402f31:	4c 29 e5             	sub    %r12,%rbp
  402f34:	48 83 ec 08          	sub    $0x8,%rsp
  402f38:	48 c1 fd 03          	sar    $0x3,%rbp
  402f3c:	e8 27 dd ff ff       	callq  400c68 <_init>
  402f41:	48 85 ed             	test   %rbp,%rbp
  402f44:	74 20                	je     402f66 <__libc_csu_init+0x56>
  402f46:	31 db                	xor    %ebx,%ebx
  402f48:	0f 1f 84 00 00 00 00 	nopl   0x0(%rax,%rax,1)
  402f4f:	00 
  402f50:	4c 89 ea             	mov    %r13,%rdx
  402f53:	4c 89 f6             	mov    %r14,%rsi
  402f56:	44 89 ff             	mov    %r15d,%edi
  402f59:	41 ff 14 dc          	callq  *(%r12,%rbx,8)
  402f5d:	48 83 c3 01          	add    $0x1,%rbx
  402f61:	48 39 eb             	cmp    %rbp,%rbx
  402f64:	75 ea                	jne    402f50 <__libc_csu_init+0x40>
  402f66:	48 83 c4 08          	add    $0x8,%rsp
  402f6a:	5b                   	pop    %rbx
  402f6b:	5d                   	pop    %rbp
  402f6c:	41 5c                	pop    %r12
  402f6e:	41 5d                	pop    %r13
  402f70:	41 5e                	pop    %r14
  402f72:	41 5f                	pop    %r15
  402f74:	c3                   	retq   
  402f75:	90                   	nop
  402f76:	66 2e 0f 1f 84 00 00 	nopw   %cs:0x0(%rax,%rax,1)
  402f7d:	00 00 00 

0000000000402f80 <__libc_csu_fini>:
  402f80:	f3 c3                	repz retq 

Disassembly of section .fini:

0000000000402f84 <_fini>:
  402f84:	48 83 ec 08          	sub    $0x8,%rsp
  402f88:	48 83 c4 08          	add    $0x8,%rsp
  402f8c:	c3                   	retq   
